       1                                	.TITLE MAIN
       2                                	.LIST MEB
       3                                	.ENABL LC
       4                                
       5                                	.ASECT
       6 001000                         	.=1000
       7                                
       8                                .MACRO RET
       9                                	RETURN
      10                                .ENDM
      11 040020                         C_VADDR=40020
      12 110020                         C_MADDR=110020
      13 122260                         C_XADDR=122260
      14 100010                         C_TADDR=100010
      15 000500                         C_SCRWIDD=320.
      16 000240                         C_SCRWID=160.
      17 000120                         C_SCRWIH=80.
      18 100064                         SCOREP=C_TADDR+54
      19 100050                         AMMOP=C_TADDR+40
      20 103230                         MSGLN=C_TADDR+3220
      21 117430                         FNT=117430
      22 064000                         TXTH1=64000
      23 065000                         TXTH2=65000
      24 066000                         TXTH3=66000
      25 067000                         TXTH4=67000
      26 070000                         TXTV1=70000
      27 071000                         TXTV2=71000
      28 072000                         TXTV3=72000
      29 073000                         TXTV4=73000
      30 000000                         V_SC0=0.
      31 000001                         V_SC1=1.
      32 000002                         H_SND=2.
      33 000003                         A_SND=3.
      34 000004                         F_SND=4.
      35 000005                         F_IVTS=5.
      36 000006                         F_EXIT=6.
      37 000007                         F_PCHR=7.
      38 000010                         F_PMSG=8.
      39 000011                         F_TMR=9.
      40 000012                         V_SC2=10.
      41 000013                         M_STA=11.
      42 000014                         F_PAL=12.
      43 000015                         F_PCHR2=13.
      44 000014                         MNRS=12.
      45 000023                         HITRAD=19.
      46 000031                         SCLIM=25.
      47 000000                         GSEXIT=0.
      48 000001                         GSGAME=1.
      49 000002                         GSPAUS=2.
      50 000004                         GSPLWN=4.
      51 000010                         GSHTWN=8.
      52                                
      53 001000 106427  000200          START:	MTPS #200
      54                                
      55 001004 012737  000001  035150  	MOV #1,@#PpuComm
      56                                
      57 001012 012704  035410          	MOV #PPUBEG,R4
      58 001016 012705  006074          	MOV #PPUEND-PPUBEG/2,R5
      59 001022 004767  035270'         	CALL PPRUN
      60 001026 005737  035150          	TST @#PpuComm
      61 001032 001375                  	BNE .-4
      62                                
      63 001034 005067  001360'         	CLR BITFLD
      64 001040 005067  004060'         	CLR AMAP
      65 001044 004767  001314'         	CALL CLWHLE
      66 001050 013727  000100          	MOV @#100,(PC)+
      67 001054 000000                  OLDTMI:	.WORD 0
      68 001056 013727  000102          	MOV @#102,(PC)+
      69 001062 000000                  OLDTMM:	.WORD 0
      70 001064 012737  001126  000100  	MOV #NEWTMI,@#100
      71 001072 012737  000200  000102  	MOV #200,@#102
      72 001100 012700  000011          	MOV #F_TMR,R0
      73 001104 004767  001242'         	CALL SCH2
      74 001110 005737  035150          	TST @#PpuComm
      75 001114 001375                  	BNE .-4
      76 001116 106427  000000          	MTPS #0
      77 001122 000167  032026'         	JMP GOTIT
      78 001126 036727  001360' 000010  NEWTMI:	BIT BITFLD,#8.
      79 001134 001426                  	BEQ 1$
      80 001136 036727  001214' 000001  	BIT SKIP,#1
      81 001144 001022                  	BNE 1$
      82 001146 010046                  	MOV R0,-(SP)
      83 001150 010146                  	MOV R1,-(SP)
      84 001152 010246                  	MOV R2,-(SP)
      85 001154 010346                  	MOV R3,-(SP)
      86 001156 010446                  	MOV R4,-(SP)
      87 001160 010546                  	MOV R5,-(SP)
      88 001162 013746  176640          	MOV @#176640,-(SP)
      89 001166 004767  002426'         	CALL GLOGIC
      90 001172 012637  176640          	MOV (SP)+,@#176640
      91 001176 012605                  	MOV (SP)+,R5
      92 001200 012604                  	MOV (SP)+,R4
      93 001202 012603                  	MOV (SP)+,R3
      94 001204 012602                  	MOV (SP)+,R2
      95 001206 012601                  	MOV (SP)+,R1
      96 001210 012600                  	MOV (SP)+,R0
      97 001212 005227                  1$:	INC (PC)+
      98 001214 000000                  SKIP:	.WORD 0
      99 001216 026727  001214' 000062  	CMP SKIP,#50.
     100 001224 103405                  	BLO 2$
     101 001226 005067  001214'         	CLR SKIP
     102 001232 052767  000200  001360' 	BIS #128.,BITFLD
     103 001240 000002                  2$:	RTI
     104 001242 106746                  SCH2:	MFPS -(SP)
     105 001244 106427  000200          	MTPS #200
     106 001250 005737  035150          	TST @#PpuComm
     107 001254 001375                  	BNE .-4
     108 001256 012737  000001  035150  	MOV #1,@#PpuComm
     109 001264 032737  000200  176674  	BIT #128.,@#176674
     110 001272 001774                  	BEQ .-6
     111 001274 110037  176676          	MOVB R0,@#176676
     112 001300 032737  000200  176674  	BIT #128.,@#176674
     113 001306 001774                  	BEQ .-6
     114 001310 106426                  	MTPS (SP)+
     115                                	RET
       1 001312 000207                  	RETURN
     116 001314 012700  040000          CLWHLE:	MOV #40000,R0
     117 001320 012703  036120          	MOV #15440.,R3
     118 001324 005020                  	CLR (R0)+
     119 001326 077302                  	SOB R3,.-2
     120 001330 012737  100000  176640  CLVRAM:	MOV #100000,@#176640
     121 001336 012703  050000          	MOV #20480.,R3
     122 001342 005037  176642          1$:	CLR @#176642
     123 001346 005237  176640          	INC @#176640
     124 001352 077305                  	SOB R3,1$
     125                                	RET
       1 001354 000207                  	RETURN
     126 001356 000000                  GSTATE:	.WORD 0
     127 001360 000000                  BITFLD:	.WORD 0
     128 001362    012                  AMMO:	.BYTE 10.
     129 001363    001                  OLDAM:	.BYTE 1.
     130 001364    000     000          SCORE:	.BYTE 0.,0.
     131 001366    001     000          OLDSCR:	.BYTE 1.,0.
     132 001370    000                  FRCNTR:	.BYTE 0
     133 001371    000                  	.EVEN
     134 001372 000000                  PLX:	.WORD 0
     135 001374 000000                  PLY:	.WORD 0
     136 001376 000000                  PLA:	.WORD 0
     137 001400 000000                  SPLX:	.WORD 0
     138 001402 000000                  SPLY:	.WORD 0
     139 001404 000000                  SPLA:	.WORD 0
     140 001406 035126  035124  035132  PROCSK:	.WORD KeyLeft,KeyRight,KeyUp,KeyDown,KeySpace
         001414 035130  035122          
     141 001420 035046  035052  035050  	.WORD KeyJ,KeyF,KeyC,KeyW,KeyY
         001426 035056  035054          
     142 001432 035110  035106  035104  	.WORD KeyK1,KeyK2,KeyK3,KeyK5,KeyEnter,KeyStop
         001440 035100  035120  035112  
     143 001446 003654  003702  003444  PROCSP:	.WORD DLFT,DRGHT,DUP,DDWN,DSPC
         001454 003432  003400          
     144 001460 003730  003536  003444  	.WORD DROT,DSL,DUP,DSR,DDWN
         001466 003556  003432          
     145 001472 003264  003746  003730  	.WORD DTAB,DPAUS,DROT,DEXIT,DREST,DFPS
         001500 003256  004020  003312  
     146 001506 177772  177772  177772  PROCSR:	.WORD 177772,177772,177772,177772,177772
         001514 177772  177772          
     147 001520 177772  177772  177772  	.WORD 177772,177772,177772,177772,177772
         001526 177772  177772          
     148 001532 177760  177774  177772  	.WORD 177760,177774,177772,177760,177763,177772
         001540 177760  177763  177772  
     149 001546 000000  000000  000000  PROCSC:	.WORD 0,0,0,0,1
         001554 000000  000001          
     150 001560 000001  000000  000000  	.WORD 1,0,0,0,0
         001566 000000  000000          
     151 001572 000001  000001  000001  	.WORD 1,1,1,1,1,1
         001600 000001  000001  000001  
     152 001606 000002  000002  000010  PROCST:	.WORD 2,2,10,10,0
         001614 000010  000000          
     153 001620 000000  000004  000010  	.WORD 0,4,10,4,10
         001626 000004  000010          
     154 001632 000000  000000  000000  	.WORD 0,0,0,0,0,0
         001640 000000  000000  000000  
     155 001646 000000                  WASP:	.WORD 0
     156 001650 000000                  ANGV:	.WORD 0
     157 001652 005000                  JKB:	CLR R0
     158 001654 016001  001406          1$:	MOV PROCSK(R0),R1
     159 001660 005711                  	TST (R1)
     160 001662 001421                  	BEQ 2$
     161 001664 005760  001546          	TST PROCSC(R0)
     162 001670 001401                  	BEQ 3$
     163 001672 005011                  	CLR (R1)
     164 001674 016701  001356'         3$:	MOV GSTATE,R1
     165 001700 046001  001506          	BIC PROCSR(R0),R1
     166 001704 001410                  	BEQ 2$
     167 001706 056067  001606  001646' 	BIS PROCST(R0),WASP
     168 001714 016001  001446          	MOV PROCSP(R0),R1
     169 001720 010046                  	MOV R0,-(SP)
     170 001722 004711                  	CALL (R1)
     171 001724 012600                  	MOV (SP)+,R0
     172 001726 005720                  2$:	TST (R0)+
     173 001730 020027  000040          	CMP R0,#32.
     174 001734 001347                  	BNE 1$
     175                                	RET
       1 001736 000207                  	RETURN
     176 001740 016702  002032'         FMS:	MOV FMSP,R2
     177 001744 005202                  	INC R2
     178 001746 042702  177774          	BIC #177774,R2
     179 001752 010267  002032'         	MOV R2,FMSP
     180 001756 110062  002034          	MOVB R0,FMSD1(R2)
     181 001762 110162  002040          	MOVB R1,FMSD2(R2)
     182 001766 005000                  	CLR R0
     183 001770 005001                  	CLR R1
     184 001772 012702  000004          	MOV #4.,R2
     185 001776 116203  002033          1$:	MOVB FMSD1-1(R2),R3
     186 002002 060300                  	ADD R3,R0
     187 002004 116203  002037          	MOVB FMSD2-1(R2),R3
     188 002010 060301                  	ADD R3,R1
     189 002012 077207                  	SOB R2,1$
     190 002014 006200                  	ASR R0
     191 002016 006200                  	ASR R0
     192 002020 006200                  	ASR R0
     193 002022 006201                  	ASR R1
     194 002024 006201                  	ASR R1
     195 002026 006201                  	ASR R1
     196                                	RET
       1 002030 000207                  	RETURN
     197 002032 000000                  FMSP:	.WORD 0
     198 002034                         FMSD1:	.BLKB 4.
     199 002040                         FMSD2:	.BLKB 4.
     200                                	.EVEN
     201 002044 005701                  MAKEMM:	TST R1
     202 002046 001451                  	BEQ 1$
     203 002050 100002                  	BPL 2$
     204 002052 005401                  	NEG R1
     205 002054 010405                  	MOV R4,R5
     206 002056 020127  000010          2$:	CMP R1,#8.
     207 002062 101402                  	BLOS 3$
     208 002064 012701  000010          	MOV #8.,R1
     209 002070 010146                  3$:	MOV R1,-(SP)
     210 002072 004767  003420'         	CALL GETDIR
     211 002076 012702  000011          	MOV #9.,R2
     212 002102 162602                  	SUB (SP)+,R2
     213 002104 010146                  	MOV R1,-(SP)
     214 002106 010246                  	MOV R2,-(SP)
     215 002110 010046                  	MOV R0,-(SP)
     216 002112 010246                  	MOV R2,-(SP)
     217 002114 012604                  	MOV (SP)+,R4
     218 002116 012602                  	MOV (SP)+,R2
     219 002120 100005                  	BPL 11$
     220 002122 005402                  	NEG R2
     221 002124 004767  013766'         	CALL SPDIV
     222 002130 005402                  	NEG R2
     223 002132 000402                  	BR 12$
     224 002134 004767  013766'         11$:	CALL SPDIV
     225 002140 010200                  12$:	MOV R2,R0
     226 002142 012604                  	MOV (SP)+,R4
     227 002144 012602                  	MOV (SP)+,R2
     228 002146 100005                  	BPL 21$
     229 002150 005402                  	NEG R2
     230 002152 004767  013766'         	CALL SPDIV
     231 002156 005402                  	NEG R2
     232 002160 000402                  	BR 22$
     233 002162 004767  013766'         21$:	CALL SPDIV
     234 002166 010201                  22$:	MOV R2,R1
     235 002170 004715                  	CALL (R5)
     236                                1$:	RET
       1 002172 000207                  	RETURN
     237 002174 016701  001356'         JMS:	MOV GSTATE,R1
     238 002200 046701  001506'         	BIC PROCSR,R1
     239 002204 001455                  	BEQ 4$
     240 002206 016701  035152'                 MOV MSST,R1
     241 002212 042701  000401          	BIC #256.+1.,R1
     242 002216 010100                  	MOV R1,R0
     243 002220 000300                  	SWAB R0
     244 002222 106200                  	ASRB R0
     245 002224 106201                  	ASRB R1
     246 002226 004767  001740'         	CALL FMS
     247 002232 010046                  	MOV R0,-(SP)
     248 002234 005767  035116'         	TST KeyShift
     249 002240 001012                  	BNE 22$
     250 002242 032767  000002  001646' 	BIT #2,WASP
     251 002250 001006                  	BNE 22$
     252 002252 060167  001376'         	ADD R1,PLA
     253 002256 042767  177000  001376' 	BIC #177000,PLA
     254 002264 000412                  	BR 21$
     255 002266 032767  000004  001646' 22$:	BIT #4,WASP
     256 002274 001006                  	BNE 21$
     257 002276 012704  003542          	MOV #DSL2,R4
     258 002302 012705  003562          	MOV #DSR2,R5
     259 002306 004767  002044'         	CALL MAKEMM
     260 002312 012601                  21$:	MOV (SP)+,R1
     261 002314 032767  000010  001646' 	BIT #10,WASP
     262 002322 001006                  	BNE 4$
     263 002324 012704  003436          	MOV #DDWN2,R4
     264 002330 012705  003450          	MOV #DUP2,R5
     265 002334 004767  002044'         	CALL MAKEMM
     266                                4$:	RET
       1 002340 000207                  	RETURN
     267 002342 036727  001646' 000001  JPS:	BIT WASP,#1
     268 002350 001002                  	BNE 1$
     269 002352 005067  001650'         	CLR ANGV
     270                                1$:	RET
       1 002356 000207                  	RETURN
     271 002360 005067  001646'         JOY:	CLR WASP
     272 002364 004767  001652'         	CALL JKB
     273 002370 004767  002174'         	CALL JMS
     274 002374 004767  002342'         	CALL JPS
     275                                	RET
       1 002400 000207                  	RETURN
     276 002402 116700  001370'         IFRC:	MOVB FRCNTR,R0
     277 002406 105200                  	INCB R0
     278 002410 105200                  	INCB R0
     279 002412 110067  001370'         	MOVB R0,FRCNTR
     280 002416 001002                  	BNE 1$
     281 002420 004767  013040'         	CALL CLVIS
     282                                1$:	RET
       1 002424 000207                  	RETURN
     283 002426 022767  000002  001356' GLOGIC:	CMP #GSPAUS,GSTATE
     284 002434 001402                  	BEQ 1$
     285 002436 004767  030114'         	CALL MNMOV
     286 002442 004767  002360'         1$:	CALL JOY
     287 002446 022767  000010  001356' 	CMP #GSHTWN,GSTATE
     288 002454 001010                  	BNE 2$
     289 002456 004767  016000'         	CALL SETTA
     290 002462 016701  030512'         	MOV MNBF+6.,R1
     291 002466 016700  030510'         	MOV MNBF+4.,R0
     292 002472 004767  003406'         	CALL SETPL
     293                                2$:	RET
       1 002476 000207                  	RETURN
     294 002500 106427  000200          THSNC:	MTPS #200
     295 002504 016767  001376' 001404' 	MOV PLA,SPLA
     296 002512 016767  001372' 001400' 	MOV PLX,SPLX
     297 002520 016767  001374' 001402' 	MOV PLY,SPLY
     298 002526 004767  030450'         	CALL MNSYNC
     299 002532 106427  000000          	MTPS #0
     300                                	RET
       1 002536 000207                  	RETURN
     301 002540 105067  001370'         LMAP:	CLRB FRCNTR
     302 002544 004767  013004'         	CALL PREPM
     303 002550 004767  013040'         	CALL CLVIS
     304 002554 004767  026732'         	CALL MNSET
     305 002560 004767  015362'         	CALL INISCR
     306 002564 004767  015452'         	CALL INIAM
     307                                	RET
       1 002570 000207                  	RETURN
     308                                GO:
     309 002572 004767  010714'         	CALL CALCD
     310 002576 004767  013400'         	CALL CLPSC
     311 002602 004767  004052'         	CALL DRST2
     312 002606 052767  000010  001360' 	BIS #8.,BITFLD
     313 002614 004767  002500'         ML:	CALL THSNC
     314 002620 004767  002402'         	CALL IFRC
     315 002624 004767  022766'         	CALL RENDR
     316 002630 004767  024046'         	CALL MNPRC
     317 002634 004767  022000'         	CALL DRDIFF
     318 002640 004767  015376'         	CALL PRNSCR
     319 002644 004767  015470'         	CALL PRNAM
     320 002650 005227                  	INC (PC)+
     321 002652 000000                  CFPS:	.WORD 0
     322 002654 004767  002730'         	CALL PRFPS
     323                                ML2:
     324 002660 004767  003040'         	CALL DOMAP
     325 002664 004767  003000'         	CALL DORST
     326 002670 004767  003134'         	CALL DOMSG
     327 002674 016700  001356'         	MOV GSTATE,R0
     328 002700 001407                  	BEQ 1$
     329 002702 006200                  	ASR R0
     330 002704 001743                  	BEQ ML
     331 002706 006200                  	ASR R0
     332 002710 001763                  	BEQ ML2
     333 002712 006200                  	ASR R0
     334 002714 001737                  	BEQ ML
     335 002716 000736                  	BR ML
     336 002720 042767  000010  001360' 1$:	BIC #8.,BITFLD
     337                                	RET
       1 002726 000207                  	RETURN
     338 002730 032767  000200  001360' PRFPS:	BIT #128.,BITFLD
     339 002736 001417                  	BEQ 1$
     340 002740 042767  000200  001360' 	BIC #128.,BITFLD
     341 002746 032767  000400  001360' 	BIT #256.,BITFLD
     342 002754 001406                  	BEQ 2$
     343 002756 012701  100000          	MOV #100000,R1
     344 002762 016704  002652'         	MOV CFPS,R4
     345 002766 004767  015214'         	CALL DOUT
     346 002772 005067  002652'         2$:	CLR CFPS
     347                                1$:	RET
       1 002776 000207                  	RETURN
     348 003000 032767  000004  001360' DORST:	BIT #4,BITFLD
     349 003006 001413                  	BEQ 1$
     350 003010 042767  000004  001360' 	BIC #4,BITFLD
     351 003016 042767  000010  001360' 	BIC #8.,BITFLD
     352 003024 004767  004052'         	CALL DRST2
     353 003030 052767  000010  001360' 	BIS #8.,BITFLD
     354                                1$:	RET
       1 003036 000207                  	RETURN
     355 003040 032767  000001  001360' DOMAP:	BIT #1,BITFLD
     356 003046 001417                  	BEQ 2$
     357 003050 042767  000001  001360' 	BIC #1,BITFLD
     358 003056 032767  000002  001360' 	BIT #2,BITFLD
     359 003064 001003                  	BNE 1$
     360 003066 004767  014060'         	CALL CLRM
     361                                	RET
       1 003072 000207                  	RETURN
     362 003074 004767  014126'         1$:	CALL DRAWM
     363 003100 004767  014402'         	CALL MNDRW
     364                                	RET
       1 003104 000207                  	RETURN
     365 003106 032767  000002  001360' 2$:	BIT #2,BITFLD
     366 003114 001406                  	BEQ 3$
     367 003116 022767  000002  001356' 	CMP #GSPAUS,GSTATE
     368 003124 001402                  	BEQ 3$
     369 003126 004767  014402'         	CALL MNDRW
     370                                3$:	RET
       1 003132 000207                  	RETURN
     371 003134 032767  000020  001360' DOMSG:	BIT #16.,BITFLD
     372 003142 001413                  	BEQ 1$
     373 003144 042767  000020  001360' 	BIC #16.,BITFLD
     374 003152 012705  000002          	MOV #2,R5
     375 003156 004767  015524'         	CALL PRNMS
     376 003162 012705  000003          	MOV #3,R5
     377 003166 004767  015524'         	CALL PRNMS
     378 003172 032767  000040  001360' 1$:	BIT #32.,BITFLD
     379 003200 001413                  	BEQ 2$
     380 003202 042767  000040  001360' 	BIC #32.,BITFLD
     381 003210 012705  000001          	MOV #1,R5
     382 003214 004767  015524'         	CALL PRNMS
     383 003220 012705  000003          	MOV #3,R5
     384 003224 004767  015524'         	CALL PRNMS
     385 003230 032767  000100  001360' 2$:	BIT #64.,BITFLD
     386 003236 001406                  	BEQ 3$
     387 003240 042767  000100  001360' 	BIC #64.,BITFLD
     388 003246 005005                  	CLR R5
     389 003250 004767  015524'         	CALL PRNMS
     390                                3$:	RET
       1 003254 000207                  	RETURN
     391 003256 005067  001356'         DEXIT:	CLR GSTATE
     392                                	RET
       1 003262 000207                  	RETURN
     393 003264 012700  000002          DTAB:	MOV #2,R0
     394 003270 016701  001360'         	MOV BITFLD,R1
     395 003274 074001                  	XOR R0,R1
     396 003276 010167  001360'         	MOV R1,BITFLD
     397 003302 052767  000001  001360' 	BIS #1,BITFLD
     398                                1$:	RET
       1 003310 000207                  	RETURN
     399 003312 012700  000400          DFPS:	MOV #256.,R0
     400 003316 016701  001360'         	MOV BITFLD,R1
     401 003322 074001                  	XOR R0,R1
     402 003324 010167  001360'         	MOV R1,BITFLD
     403 003330 032701  000400          	BIT #256.,R1
     404 003334 001020                  	BNE 1$
     405 003336 012737  100000  176640  	MOV #100000,@#176640
     406 003344 012701  000040          	MOV #32.,R1
     407 003350 012700  000010          3$:	MOV #8.,R0
     408 003354 005037  176642          2$:	CLR @#176642
     409 003360 005237  176640          	INC @#176640
     410 003364 077005                  	SOB R0,2$
     411 003366 062737  000110  176640  	ADD #80.-8.,@#176640
     412 003374 077113                  	SOB R1,3$
     413                                1$:	RET
       1 003376 000207                  	RETURN
     414 003400 004767  030146'         DSPC:	CALL DPROJ1
     415                                	RET
       1 003404 000207                  	RETURN
     416 003406 010067  001372'         SETPL:	MOV R0,PLX
     417 003412 010167  001374'         	MOV R1,PLY
     418                                	RET
       1 003416 000207                  	RETURN
     419 003420 016700  001376'         GETDIR:	MOV PLA,R0
     420 003424 004767  013616'         	CALL GSNCS
     421                                	RET
       1 003430 000207                  	RETURN
     422 003432 004767  003420'         DDWN:	CALL GETDIR
     423 003436 005400                  DDWN2:	NEG R0
     424 003440 005401                  	NEG R1
     425 003442 000402                  	BR DUP2
     426 003444 004767  003420'         DUP:	CALL GETDIR
     427 003450 010002                  DUP2:	MOV R0,R2
     428 003452 010103                  	MOV R1,R3
     429 003454 066700  001372'         	ADD PLX,R0
     430 003460 066701  001374'         	ADD PLY,R1
     431 003464 004767  015010'         	CALL CHECK
     432 003470 001003                  	BNE 1$
     433 003472 004767  003406'         	CALL SETPL
     434 003476 000416                  	BR 3$
     435 003500 160301                  1$:	SUB R3,R1
     436 003502 004767  015010'         	CALL CHECK
     437 003506 001003                  	BNE 2$
     438 003510 004767  003406'         	CALL SETPL
     439 003514 000407                  	BR 3$
     440 003516 060301                  2$:	ADD R3,R1
     441 003520 160200                  	SUB R2,R0
     442 003522 004767  015010'         	CALL CHECK
     443 003526 001002                  	BNE 3$
     444 003530 004767  003406'         	CALL SETPL
     445                                3$:	RET
       1 003534 000207                  	RETURN
     446 003536 004767  003420'         DSL:	CALL GETDIR
     447 003542 074001                  DSL2:	XOR R0,R1
     448 003544 074100                  	XOR R1,R0
     449 003546 074001                  	XOR R0,R1
     450 003550 005401                  	NEG R1
     451 003552 000167  003450'         	JMP DUP2
     452 003556 004767  003420'         DSR:	CALL GETDIR
     453 003562 074001                  DSR2:	XOR R0,R1
     454 003564 074100                  	XOR R1,R0
     455 003566 074001                  	XOR R0,R1
     456 003570 005401                  	NEG R1
     457 003572 000167  003436'         	JMP DDWN2
     458 003576 016700  001650'         IANGV:	MOV ANGV,R0
     459 003602 005200                  	INC R0
     460 003604 020027  000006          	CMP R0,#6.
     461 003610 103402                  	BLO 1$
     462 003612 012700  000005          	MOV #5.,R0
     463 003616 010067  001650'         1$:	MOV R0,ANGV
     464 003622 006300                  	ASL R0
     465 003624 016000  003640          	MOV IAVV(R0),R0
     466 003630 052767  000001  001646' 	BIS #1,WASP
     467                                	RET
       1 003636 000207                  	RETURN
     468 003640 000000  000003  000005  IAVV:	.WORD 0.,3.,5.,6.,7.,8.
         003646 000006  000007  000010  
     469 003654 005767  035116'         DLFT:	TST KeyShift
     470 003660 001326                  	BNE DSL
     471 003662 004767  003576'         	CALL IANGV
     472 003666 160067  001376'         	SUB R0,PLA
     473 003672 042767  177000  001376' 	BIC #177000,PLA
     474                                	RET
       1 003700 000207                  	RETURN
     475 003702 005767  035116'         DRGHT:	TST KeyShift
     476 003706 001323                  	BNE DSR
     477 003710 004767  003576'         	CALL IANGV
     478 003714 060067  001376'         	ADD R0,PLA
     479 003720 042767  177000  001376' 	BIC #177000,PLA
     480                                	RET
       1 003726 000207                  	RETURN
     481 003730 062767  000400  001376' DROT:	ADD #256.,PLA
     482 003736 042767  177000  001376' 	BIC #177000,PLA
     483                                	RET
       1 003744 000207                  	RETURN
     484 003746 026727  001356' 000001  DPAUS:	CMP GSTATE,#GSGAME
     485 003754 001007                  	BNE 2$
     486 003756 012767  000002  001356' 	MOV #GSPAUS,GSTATE
     487 003764 052767  000100  001360' 	BIS #64.,BITFLD
     488 003772 000411                  	BR 1$
     489 003774 026727  001356' 000002  2$:	CMP GSTATE,#GSPAUS
     490 004002 001005                  	BNE 1$
     491 004004 012767  000001  001356' 	MOV #GSGAME,GSTATE
     492 004012 004767  015550'         	CALL CLMS
     493                                1$:	RET
       1 004016 000207                  	RETURN
     494 004020 026727  001356' 000004  DREST:	CMP GSTATE,#GSPLWN
     495 004026 001405                  	BEQ 1$
     496 004030 026727  001356' 000010  	CMP GSTATE,#GSHTWN
     497 004036 001401                  	BEQ 1$
     498                                	RET
       1 004040 000207                  	RETURN
     499 004042 052767  000004  001360' 1$:	BIS #4,BITFLD
     500                                	RET
       1 004050 000207                  	RETURN
     501 004052 005067  002652'         DRST2:	CLR CFPS
     502 004056 012700                  	MOV (PC)+,R0
     503 004060 000000                  AMAP:	.WORD 0
     504 004062 004767  002540'         	CALL LMAP
     505 004066 012767  000001  001356' 	MOV #GSGAME,GSTATE
     506 004074 004767  015550'         	CALL CLMS
     507 004100 032767  000002  001360' 	BIT #2,BITFLD
     508 004106 001404                  	BEQ 1$
     509 004110 004767  014060'         	CALL CLRM
     510 004114 004767  014126'         	CALL DRAWM
     511 004120 005067  001646'         1$:	CLR WASP
     512 004124 005067  001650'         	CLR ANGV
     513                                	RET
       1 004130 000207                  	RETURN
     514                                
     515                                CLMSK:
     516 004132    003     003     014  DRMS1:	.BYTE 3,3,14,14,60,60,300,300
         004135    014     060     060  
         004140    300     300          
     517 004142    000     003     000  DRMS2:	.BYTE 0,3,0,14,0,60,0,300
         004145    014     000     060  
         004150    000     300          
     518 004152    003     000     014  DRMS3:	.BYTE 3,0,14,0,60,0,300,0
         004155    000     060     000  
         004160    300     000          
     519 004162 040000  037776  037772  SCTAB:	.WORD 040000,037776,037772,037764
         004170 037764                  
     520 004172 037753  037740  037722  	.WORD 037753,037740,037722,037702
         004200 037702                  
     521 004202 037657  037632  037602  	.WORD 037657,037632,037602,037550
         004210 037550                  
     522 004212 037513  037454  037412  	.WORD 037513,037454,037412,037346
         004220 037346                  
     523 004222 037300  037227  037153  	.WORD 037300,037227,037153,037075
         004230 037075                  
     524 004232 037015  036732  036645  	.WORD 037015,036732,036645,036555
         004240 036555                  
     525 004242 036463  036366  036270  	.WORD 036463,036366,036270,036166
         004250 036166                  
     526 004252 036063  035755  035644  	.WORD 036063,035755,035644,035532
         004260 035532                  
     527 004262 035415  035276  035154  	.WORD 035415,035276,035154,035030
         004270 035030                  
     528 004272 034702  034552  034417  	.WORD 034702,034552,034417,034262
         004300 034262                  
     529 004302 034123  033762  033616  	.WORD 034123,033762,033616,033450
         004310 033450                  
     530 004312 033301  033127  032752  	.WORD 033301,033127,032752,032574
         004320 032574                  
     531 004322 032414  032232  032045  	.WORD 032414,032232,032045,031657
         004330 031657                  
     532 004332 031466  031274  031077  	.WORD 031466,031274,031077,030701
         004340 030701                  
     533 004342 030500  030276  030071  	.WORD 030500,030276,030071,027663
         004350 027663                  
     534 004352 027453  027241  027026  	.WORD 027453,027241,027026,026610
         004360 026610                  
     535 004362 026371  026150  025725  	.WORD 026371,026150,025725,025501
         004370 025501                  
     536 004372 025252  025022  024571  	.WORD 025252,025022,024571,024336
         004400 024336                  
     537 004402 024101  023643  023403  	.WORD 024101,023643,023403,023141
         004410 023141                  
     538 004412 022677  022432  022164  	.WORD 022677,022432,022164,021715
         004420 021715                  
     539 004422 021444  021172  020717  	.WORD 021444,021172,020717,020442
         004430 020442                  
     540 004432 020164  017705  017424  	.WORD 020164,017705,017424,017143
         004440 017143                  
     541 004442 016660  016374  016106  	.WORD 016660,016374,016106,015620
         004450 015620                  
     542 004452 015331  015040  014547  	.WORD 015331,015040,014547,014254
         004460 014254                  
     543 004462 013761  013464  013167  	.WORD 013761,013464,013167,012671
         004470 012671                  
     544 004472 012372  012072  011571  	.WORD 012372,012072,011571,011270
         004500 011270                  
     545 004502 010766  010463  010157  	.WORD 010766,010463,010157,007653
         004510 007653                  
     546 004512 007346  007041  006533  	.WORD 007346,007041,006533,006225
         004520 006225                  
     547 004522 005716  005406  005077  	.WORD 005716,005406,005077,004566
         004530 004566                  
     548 004532 004256  003745  003434  	.WORD 004256,003745,003434,003122
         004540 003122                  
     549 004542 002610  002276  001764  	.WORD 002610,002276,001764,001452
         004550 001452                  
     550 004552 001137  000625  000312  	.WORD 001137,000625,000312,000000
         004560 000000                  
     551 004562 004574                  MAPLST:	.WORD MAP1
     552 004564 004750                  	.WORD MAP2
     553 004566 005070                  	.WORD MAP3
     554 004570 005234                  	.WORD MAP4
     555 004572 005352                  	.WORD MAP5
     556 004574 000140                  MAP1:	.WORD 96.
     557 004576 000140                  	.WORD 96.
     558 004600 000000                  	.WORD 0.
     559 004602    222     054     034  	.BYTE 222,054,034,214,000,204,333,114
         004605    214     000     204  
         004610    333     114          
     560 004612    036     256     256  	.BYTE 036,256,256,153,020,345,005,355
         004615    153     020     345  
         004620    005     355          
     561 004622    317     317     037  	.BYTE 317,317,037,344,316,000,362,000
         004625    344     316     000  
         004630    362     000          
     562 004632    257     162     000  	.BYTE 257,162,000,033,137,176,157,000
         004635    033     137     176  
         004640    157     000          
     563 004642    045     144     375  	.BYTE 045,144,375,000,045,000,157,207
         004645    000     045     000  
         004650    157     207          
     564 004652    077     045     000  	.BYTE 077,045,000,261,000,013,275,037
         004655    261     000     013  
         004660    275     037          
     565 004662    344     235     001  	.BYTE 344,235,001,000,044,226,013,177
         004665    000     044     226  
         004670    013     177          
     566 004672    033     245     201  	.BYTE 033,245,201,166,005,037,355,205
         004675    166     005     037  
         004700    355     205          
     567 004702    032     305     332  	.BYTE 032,305,332,000,000,037,154,145
         004705    000     000     037  
         004710    154     145          
     568 004712    001     166     005  	.BYTE 001,166,005,337,270,044,040,077
         004715    337     270     044  
         004720    040     077          
     569 004722    154     317     037  	.BYTE 154,317,037,162,316,171,257,257
         004725    162     316     171  
         004730    257     257          
     570 004732    074     256     256  	.BYTE 074,256,256,020,077,054,137,166
         004735    020     077     054  
         004740    137     166          
     571 004742    154     001     204  	.BYTE 154,001,204,044,250,377
         004745    044     250     377  
     572                                	.EVEN
     573 004750 000140                  MAP2:	.WORD 96.
     574 004752 000140                  	.WORD 96.
     575 004754 000000                  	.WORD 0.
     576 004756    222     054     034  	.BYTE 222,054,034,114,000,204,337,114
         004761    114     000     204  
         004764    337     114          
     577 004766    037     140     140  	.BYTE 037,140,140,045,066,202,001,026
         004771    045     066     202  
         004774    001     026          
     578 004776    037     132     137  	.BYTE 037,132,137,075,000,302,375,005
         005001    075     000     302  
         005004    375     005          
     579 005006    344     000     304  	.BYTE 344,000,304,304,354,013,342,037
         005011    304     354     013  
         005014    342     037          
     580 005016    167     005     064  	.BYTE 167,005,064,264,044,037,054,077
         005021    264     044     037  
         005024    054     077          
     581 005026    013     001     066  	.BYTE 013,001,066,104,037,271,045,041
         005031    104     037     271  
         005034    045     041          
     582 005036    174     237     344  	.BYTE 174,237,344,000,226,321,337,330
         005041    000     226     321  
         005044    337     330          
     583 005046    242     001     101  	.BYTE 242,001,101,062,261,077,073,140
         005051    062     261     077  
         005054    073     140          
     584 005056    140     137     126  	.BYTE 140,137,126,012,337,060,222,240
         005061    012     337     060  
         005064    222     240          
     585 005066    377                  	.BYTE 377
     586 005067    000                  	.EVEN
     587 005070 000140                  MAP3:	.WORD 96.
     588 005072 000140                  	.WORD 96.
     589 005074 000000                  	.WORD 0.
     590 005076    222     052     034  	.BYTE 222,052,034,112,000,204,362,112
         005101    112     000     204  
         005104    362     112          
     591 005106    112     107     261  	.BYTE 112,107,261,031,336,047,001,112
         005111    031     336     047  
         005114    001     112          
     592 005116    335     077     140  	.BYTE 335,077,140,354,005,200,077,057
         005121    354     005     200  
         005124    077     057          
     593 005126    007     307     143  	.BYTE 007,307,143,077,356,147,146,146
         005131    077     356     147  
         005134    146     146          
     594 005136    136     326     037  	.BYTE 136,326,037,333,077,000,136,240
         005141    333     077     000  
         005144    136     240          
     595 005146    005     300     323  	.BYTE 005,300,323,137,347,143,077,266
         005151    137     347     143  
         005154    077     266          
     596 005156    207     137     326  	.BYTE 207,137,326,037,323,137,340,173
         005161    037     323     137  
         005164    340     173          
     597 005166    005     001     137  	.BYTE 005,001,137,115,207,216,077,247
         005171    115     207     216  
         005174    077     247          
     598 005176    333     137     037  	.BYTE 333,137,037,133,137,115,041,354
         005201    133     137     115  
         005204    041     354          
     599 005206    005     101     137  	.BYTE 005,101,137,067,206,001,143,077
         005211    067     206     001  
         005214    143     077          
     600 005216    344     146     146  	.BYTE 344,146,146,146,020,126,237,012
         005221    146     020     126  
         005224    237     012          
     601 005226    337     060     222  	.BYTE 337,060,222,240,377
         005231    240     377          
     602 005233    000                  	.EVEN
     603 005234 000140                  MAP4:	.WORD 96.
     604 005236 000140                  	.WORD 96.
     605 005240 000000                  	.WORD 0.
     606 005242    222     050     034  	.BYTE 222,050,034,110,000,216,257,000
         005245    110     000     216  
         005250    257     000          
     607 005252    116     110     300  	.BYTE 116,110,300,037,063,156,332,157
         005255    037     063     156  
         005260    332     157          
     608 005262    010     356     327  	.BYTE 010,356,327,077,000,261,157,137
         005265    077     000     261  
         005270    157     137          
     609 005272    154     037     035  	.BYTE 154,037,035,216,336,124,036,017
         005275    216     336     124  
         005300    036     017          
     610 005302    300     077     264  	.BYTE 300,077,264,277,054,037,035,256
         005305    277     054     037  
         005310    035     256          
     611 005312    266     016     217  	.BYTE 266,016,217,316,010,265,057,077
         005315    316     010     265  
         005320    057     077          
     612 005322    332     217     137  	.BYTE 332,217,137,026,037,016,316,160
         005325    026     037     016  
         005330    316     160          
     613 005332    166     100     117  	.BYTE 166,100,117,237,006,257,320,277
         005335    237     006     257  
         005340    320     277          
     614 005342    261     037     202  	.BYTE 261,037,202,337,214,044,250,377
         005345    337     214     044  
         005350    250     377          
     615                                	.EVEN
     616 005352 000140                  MAP5:	.WORD 96.
     617 005354 000140                  	.WORD 96.
     618 005356 000000                  	.WORD 0.
     619 005360    222     050     034  	.BYTE 222,050,034,110,000,204,336,110
         005363    110     000     204  
         005366    336     110          
     620 005370    037     212     357  	.BYTE 037,212,357,000,023,252,167,000
         005373    000     023     252  
         005376    167     000          
     621 005400    036     265     152  	.BYTE 036,265,152,073,333,312,037,260
         005403    073     333     312  
         005406    037     260          
     622 005410    350     001     261  	.BYTE 350,001,261,037,333,251,073,260
         005413    037     333     251  
         005416    073     260          
     623 005420    311     037     134  	.BYTE 311,037,134,000,371,140,140,344
         005423    000     371     140  
         005426    140     344          
     624 005430    000     003     265  	.BYTE 000,003,265,312,137,330,152,037
         005433    312     137     330  
         005436    152     037          
     625 005440    056     110     367  	.BYTE 056,110,367,152,051,001,143,037
         005443    152     051     001  
         005446    143     037          
     626 005450    151     001     144  	.BYTE 151,001,144,037,026,121,010,155
         005453    037     026     121  
         005456    010     155          
     627 005460    140     110     243  	.BYTE 140,110,243,237,005,337,030,111
         005463    237     005     337  
         005466    030     111          
     628 005470    120     377          	.BYTE 120,377
     629                                	.EVEN
     630 005472 064000                  MTRLHV:	.WORD TXTH1
     631 005474 065000                  	.WORD TXTH2
     632 005476 066000                  	.WORD TXTH3
     633 005500 067000                  	.WORD TXTH4
     634 005502 064000                  	.WORD TXTH1
     635 005504 065000                  	.WORD TXTH2
     636 005506 066000                  	.WORD TXTH3
     637 005510 067000                  	.WORD TXTH4
     638 005512 070000                  	.WORD TXTV1
     639 005514 071000                  	.WORD TXTV2
     640 005516 072000                  	.WORD TXTV3
     641 005520 073000                  	.WORD TXTV4
     642 005522 070000                  	.WORD TXTV1
     643 005524 071000                  	.WORD TXTV2
     644 005526 072000                  	.WORD TXTV3
     645 005530 073000                  	.WORD TXTV4
     646 005532 177400                  MTRLM:	.WORD ^B1111111100000000
     647 005534 000377                  	.WORD ^B0000000011111111
     648 005536 000000                  	.WORD 0
     649 005540 000000                  	.WORD 0
     650 005542 177777                  	.WORD ^B1111111111111111
     651 005544 010000  004000  002525  SCLR:	.WORD 4096.,2048.,1365.,1024.,819.,683.,585.,512.
         005552 002000  001463  001253  
         005560 001111  001000          
     652 005564 000707  000632  000564  	.WORD 455.,410.,372.,341.,315.,293.,273.,256.
         005572 000525  000473  000445  
         005600 000421  000400          
     653 005604 000361  000344  000330  	.WORD 241.,228.,216.,205.,195.,186.,178.,171.
         005612 000315  000303  000272  
         005620 000262  000253          
     654 005624 000244  000236  000230  	.WORD 164.,158.,152.,146.,141.,137.,132.,128.
         005632 000222  000215  000211  
         005640 000204  000200          
     655 005644 000001  000002  000004  BTT:	.WORD 1.,2.,4.,8.,16.,32.,64.,128.,256.
         005652 000010  000020  000040  
         005660 000100  000200  000400  
     656 005666 001000  002000  004000  	.WORD 512.,1024.,2048.,4096.,8192.,16384.,-32768.
         005674 010000  020000  040000  
         005702 100000                  
     657 005704 005716  005726  000000  ANIMAS:	.WORD HNTRS,HITS,0,0,AMMOS
         005712 000000  005736          
     658 005716 000003  005764  006024  HNTRS:	.WORD 3.,HNTR1,HNTR2,HNTR3
         005724 006064                  
     659 005726 000003  006124  006164  HITS:	.WORD 3.,HIT1,HIT2,HIT3
         005734 006224                  
     660 005736 000012  006264  006324  AMMOS:	.WORD 10.,AMMO1,AMMO2,AMMO3,AMMO4,AMMO5,AMMO5
         005744 006364  006424  006464  
         005752 006464                  
     661 005754 006424  006364  006324  	.WORD AMMO4,AMMO3,AMMO2,AMMO1
         005762 006264                  
     662 005764 000000  000000  177760  HNTR1:	.WORD 0.,0.,-16.,32764.,16382.,-569.,31183.
         005772 077774  037776  176707  
         006000 074717                  
     663 006002 034777  174777  074707  	.WORD 14847.,-1537.,31175.,15823.,-2.
         006010 036717  177776          
     664 006014 077774  037760  000000  	.WORD 32764.,16368.,0.,0.
         006022 000000                  
     665 006024 000000  000000  037760  HNTR2:	.WORD 0.,0.,16368.,32764.,-2.,15823.,31175.
         006032 077774  177776  036717  
         006040 074707                  
     666 006042 174777  034777  074717  	.WORD -1537.,14847.,31183.,-569.,16382.
         006050 176707  037776          
     667 006054 077774  177760  000000  	.WORD 32764.,-16.,0.,0.
         006062 000000                  
     668 006064 000000  000000  137760  HNTR3:	.WORD 0.,0.,-16400.,-4.,32766.,-17977.
         006072 177774  077776  134707  
     669 006100 170307  070377  130377  	.WORD -3897.,28927.,-20225.,-3897.,31175.
         006106 170307  074707          
     670 006112 137776  177774  077760  	.WORD -16386.,-4.,32752.,0.,0.
         006120 000000  000000          
     671 006124 000000  000000  000000  HIT1:	.WORD 0.,0.,0.,0.,96.,96.,96.,924.
         006132 000000  000140  000140  
         006140 000140  001634          
     672 006144 001634  000140  000140  	.WORD 924.,96.,96.,96.,0.,0.,0.,0.
         006152 000140  000000  000000  
         006160 000000  000000          
     673 006164 000000  000000  000000  HIT2:	.WORD 0.,0.,0.,96.,360.,264.,0.,1638.
         006172 000140  000550  000410  
         006200 000000  003146          
     674 006204 003146  000000  000410  	.WORD 1638.,0.,264.,360.,96.,0.,0.,0.
         006212 000550  000140  000000  
         006220 000000  000000          
     675 006224 000000  000000  001004  HIT3:	.WORD 0.,0.,516.,612.,0.,96.,96.,1530.
         006232 001144  000000  000140  
         006240 000140  002772          
     676 006244 002772  000140  000140  	.WORD 1530.,96.,96.,0.,612.,516.,0.,0.
         006252 000000  001144  001004  
         006260 000000  000000          
     677 006264 000000  000000  000000  AMMO1:	.WORD 0,0,0,7168.,32512.,30464.,-1664.,-640.
         006272 016000  077400  073400  
         006300 174600  176600          
     678 006304 157600  077400  077400  	.WORD -8320.,32512.,32512.,7168.,0,0,0,0
         006312 016000  000000  000000  
         006320 000000  000000          
     679 006324 000000  000000  000000  AMMO2:	.WORD 0,0,0,20032.,16256.,15232.,31936.,32448.
         006332 047100  037600  035600  
         006340 076300  077300          
     680 006344 067700  037600  037600  	.WORD 28608.,16256.,16256.,20032.,0,0,0,0
         006352 047100  000000  000000  
         006360 000000  000000          
     681 006364 000000  000000  040020  AMMO3:	.WORD 0,0,16400.,1792.,8128.,7616.,15968.
         006372 003400  017700  016700  
         006400 037140                  
     682 006402 037540  033740  017700  	.WORD 16224.,14304.,8128.,8128.,1792.,16400.,0,0,0
         006410 017700  003400  040020  
         006416 000000  000000  000000  
     683 006424 000000  000400  020010  AMMO4:	.WORD 0,256.,8200.,896.,4064.,3808.,7984.
         006432 001600  007740  007340  
         006440 017460                  
     684 006442 057664  015760  007740  	.WORD 24500.,7152.,4064.,4064.,896.,8200.,256.,0,0
         006450 007740  001600  020010  
         006456 000400  000000  000000  
     685 006464 000200  020202  010004  AMMO5:	.WORD 128.,8322.,4100.,448.,2032.,1904.
         006472 000700  003760  003560  
     686 006500 007630  067733  006770  	.WORD 3992.,28635.,3576.,2032.,2032.,448.
         006506 003760  003760  000700  
     687 006514 010004  020202  000200  	.WORD 4100.,8322.,128.,0
         006522 000000                  
     688 006524 100000                  DRMSKH:	.WORD -32768.
     689 006526 040000                  	.WORD 16384.
     690 006530 020000                  	.WORD 8192.
     691 006532 010000                  	.WORD 4096.
     692 006534 004000                  	.WORD 2048.
     693 006536 002000                  	.WORD 1024.
     694 006540 001000                  	.WORD 512.
     695 006542 000400                  	.WORD 256.
     696 006544 000200                  	.WORD 128.
     697 006546 000100                  	.WORD 64.
     698 006550 000040                  	.WORD 32.
     699 006552 000020                  	.WORD 16.
     700 006554 000010                  	.WORD 8.
     701 006556 000004                  	.WORD 4.
     702 006560 000002                  	.WORD 2.
     703 006562 000001                  	.WORD 1.
     704 006564 100000                  DRMSKV:	.WORD -32768.
     705 006566 140000                  	.WORD -16384.
     706 006570 160000                  	.WORD -8192.
     707 006572 170000                  	.WORD -4096.
     708 006574 174000                  	.WORD -2048.
     709 006576 176000                  	.WORD -1024.
     710 006600 177000                  	.WORD -512.
     711 006602 177400                  	.WORD -256.
     712 006604 177600                  	.WORD -128.
     713 006606 177700                  	.WORD -64.
     714 006610 177740                  	.WORD -32.
     715 006612 177760                  	.WORD -16.
     716 006614 177770                  	.WORD -8.
     717 006616 177774                  	.WORD -4.
     718 006620 177776                  	.WORD -2.
     719 006622 177777                  	.WORD -1.
     720 006624 006634  006646  006662  MSGPTR:	.WORD PMSG,WMSG,LMSG,EMSG
         006632 006676                  
     721 006634 103300                  PMSG:	.WORD MSGLN+50
     722 006636    120     141     165  	.ASCIZ/Paused/
         006641    163     145     144  
         006644    000                  
     723 006645    000                  	.EVEN
     724 006646 103270                  WMSG:	.WORD MSGLN+40
     725 006650    131     157     165  	.ASCIZ/You Won!/
         006653    040     127     157  
         006656    156     041     000  
     726 006661    000                  	.EVEN
     727 006662 103264                  LMSG:	.WORD MSGLN+34
     728 006664    131     157     165  	.ASCIZ/You Lost!/
         006667    040     114     157  
         006672    163     164     041  
         006675    000                  
     729                                	.EVEN
     730 006676 106474                  EMSG:	.WORD MSGLN+24+3220
     731 006700    120     162     145  	.ASCIZ/Press Enter/
         006703    163     163     040  
         006706    105     156     164  
         006711    145     162     000  
     732                                	.EVEN
     733 006714    000     000     000  TXTDAT:	.BYTE 0,0,0,0,0,0,0,0,0,0,0,0,0,0,0,0
         006717    000     000     000  
         006722    000     000     000  
         006725    000     000     000  
         006730    000     000     000  
         006733    000                  
     734 006734    000     000     000  	.BYTE 0,0,0,1,1,1,1,1,1,1,1,1,1,0,0,0
         006737    001     001     001  
         006742    001     001     001  
         006745    001     001     001  
         006750    001     000     000  
         006753    000                  
     735 006754    000     000     001  	.BYTE 0,0,1,1,1,1,1,1,1,1,1,1,1,1,0,0
         006757    001     001     001  
         006762    001     001     001  
         006765    001     001     001  
         006770    001     001     000  
         006773    000                  
     736 006774    000     001     001  	.BYTE 0,1,1,1,0,0,0,0,0,0,0,0,1,1,1,0
         006777    001     000     000  
         007002    000     000     000  
         007005    000     000     000  
         007010    001     001     001  
         007013    000                  
     737 007014    000     001     001  	.BYTE 0,1,1,0,0,1,1,1,1,1,1,0,0,1,1,0
         007017    000     000     001  
         007022    001     001     001  
         007025    001     001     000  
         007030    000     001     001  
         007033    000                  
     738 007034    000     001     001  	.BYTE 0,1,1,0,0,1,1,1,1,1,1,0,0,1,1,0
         007037    000     000     001  
         007042    001     001     001  
         007045    001     001     000  
         007050    000     001     001  
         007053    000                  
     739 007054    000     001     001  	.BYTE 0,1,1,0,0,0,0,0,0,1,1,0,0,1,1,0
         007057    000     000     000  
         007062    000     000     000  
         007065    001     001     000  
         007070    000     001     001  
         007073    000                  
     740 007074    000     001     001  	.BYTE 0,1,1,0,0,0,0,0,1,1,0,0,0,1,1,0
         007077    000     000     000  
         007102    000     000     001  
         007105    001     000     000  
         007110    000     001     001  
         007113    000                  
     741 007114    000     001     001  	.BYTE 0,1,1,0,0,0,0,1,1,0,0,0,0,1,1,0
         007117    000     000     000  
         007122    000     001     001  
         007125    000     000     000  
         007130    000     001     001  
         007133    000                  
     742 007134    000     001     001  	.BYTE 0,1,1,0,0,0,1,1,0,0,0,0,0,1,1,0
         007137    000     000     000  
         007142    001     001     000  
         007145    000     000     000  
         007150    000     001     001  
         007153    000                  
     743 007154    000     001     001  	.BYTE 0,1,1,0,0,1,1,1,1,1,1,0,0,1,1,0
         007157    000     000     001  
         007162    001     001     001  
         007165    001     001     000  
         007170    000     001     001  
         007173    000                  
     744 007174    000     001     001  	.BYTE 0,1,1,0,0,1,1,1,1,1,1,0,0,1,1,0
         007177    000     000     001  
         007202    001     001     001  
         007205    001     001     000  
         007210    000     001     001  
         007213    000                  
     745 007214    000     001     001  	.BYTE 0,1,1,1,0,0,0,0,0,0,0,0,1,1,1,0
         007217    001     000     000  
         007222    000     000     000  
         007225    000     000     000  
         007230    001     001     001  
         007233    000                  
     746 007234    000     000     001  	.BYTE 0,0,1,1,1,1,1,1,1,1,1,1,1,1,0,0
         007237    001     001     001  
         007242    001     001     001  
         007245    001     001     001  
         007250    001     001     000  
         007253    000                  
     747 007254    000     000     000  	.BYTE 0,0,0,1,1,1,1,1,1,1,1,1,1,0,0,0
         007257    001     001     001  
         007262    001     001     001  
         007265    001     001     001  
         007270    001     000     000  
         007273    000                  
     748 007274    000     000     000  	.BYTE 0,0,0,0,0,0,0,0,0,0,0,0,0,0,0,0
         007277    000     000     000  
         007302    000     000     000  
         007305    000     000     000  
         007310    000     000     000  
         007313    000                  
     749 007314    000     000     000  	.BYTE 0,0,0,0,0,0,0,0,0,0,0,0,0,0,0,0
         007317    000     000     000  
         007322    000     000     000  
         007325    000     000     000  
         007330    000     000     000  
         007333    000                  
     750 007334    000     000     000  	.BYTE 0,0,0,1,1,1,1,1,1,1,1,1,1,0,0,0
         007337    001     001     001  
         007342    001     001     001  
         007345    001     001     001  
         007350    001     000     000  
         007353    000                  
     751 007354    000     000     001  	.BYTE 0,0,1,1,1,1,1,1,1,1,1,1,1,1,0,0
         007357    001     001     001  
         007362    001     001     001  
         007365    001     001     001  
         007370    001     001     000  
         007373    000                  
     752 007374    000     001     001  	.BYTE 0,1,1,1,0,0,0,0,0,0,0,0,1,1,1,0
         007377    001     000     000  
         007402    000     000     000  
         007405    000     000     000  
         007410    001     001     001  
         007413    000                  
     753 007414    000     001     001  	.BYTE 0,1,1,0,0,3,1,3,1,3,1,0,0,1,1,0
         007417    000     000     003  
         007422    001     003     001  
         007425    003     001     000  
         007430    000     001     001  
         007433    000                  
     754 007434    000     001     001  	.BYTE 0,1,1,0,0,1,3,1,3,1,3,0,0,1,1,0
         007437    000     000     001  
         007442    003     001     003  
         007445    001     003     000  
         007450    000     001     001  
         007453    000                  
     755 007454    000     001     001  	.BYTE 0,1,1,0,0,0,0,0,0,3,1,0,0,1,1,0
         007457    000     000     000  
         007462    000     000     000  
         007465    003     001     000  
         007470    000     001     001  
         007473    000                  
     756 007474    000     001     001  	.BYTE 0,1,1,0,0,0,0,0,3,1,0,0,0,1,1,0
         007477    000     000     000  
         007502    000     000     003  
         007505    001     000     000  
         007510    000     001     001  
         007513    000                  
     757 007514    000     001     001  	.BYTE 0,1,1,0,0,0,0,3,1,0,0,0,0,1,1,0
         007517    000     000     000  
         007522    000     003     001  
         007525    000     000     000  
         007530    000     001     001  
         007533    000                  
     758 007534    000     001     001  	.BYTE 0,1,1,0,0,0,3,1,0,0,0,0,0,1,1,0
         007537    000     000     000  
         007542    003     001     000  
         007545    000     000     000  
         007550    000     001     001  
         007553    000                  
     759 007554    000     001     001  	.BYTE 0,1,1,0,0,3,1,3,1,3,1,0,0,1,1,0
         007557    000     000     003  
         007562    001     003     001  
         007565    003     001     000  
         007570    000     001     001  
         007573    000                  
     760 007574    000     001     001  	.BYTE 0,1,1,0,0,1,3,1,3,1,3,0,0,1,1,0
         007577    000     000     001  
         007602    003     001     003  
         007605    001     003     000  
         007610    000     001     001  
         007613    000                  
     761 007614    000     001     001  	.BYTE 0,1,1,1,0,0,0,0,0,0,0,0,1,1,1,0
         007617    001     000     000  
         007622    000     000     000  
         007625    000     000     000  
         007630    001     001     001  
         007633    000                  
     762 007634    000     000     001  	.BYTE 0,0,1,1,1,1,1,1,1,1,1,1,1,1,0,0
         007637    001     001     001  
         007642    001     001     001  
         007645    001     001     001  
         007650    001     001     000  
         007653    000                  
     763 007654    000     000     000  	.BYTE 0,0,0,1,1,1,1,1,1,1,1,1,1,0,0,0
         007657    001     001     001  
         007662    001     001     001  
         007665    001     001     001  
         007670    001     000     000  
         007673    000                  
     764 007674    000     000     000  	.BYTE 0,0,0,0,0,0,0,0,0,0,0,0,0,0,0,0
         007677    000     000     000  
         007702    000     000     000  
         007705    000     000     000  
         007710    000     000     000  
         007713    000                  
     765 007714    000     000     000  	.BYTE 0,0,0,0,0,0,0,0,0,0,0,0,0,0,0,0
         007717    000     000     000  
         007722    000     000     000  
         007725    000     000     000  
         007730    000     000     000  
         007733    000                  
     766 007734    000     000     001  	.BYTE 0,0,1,1,1,1,1,1,1,1,1,1,1,1,0,0
         007737    001     001     001  
         007742    001     001     001  
         007745    001     001     001  
         007750    001     001     000  
         007753    000                  
     767 007754    000     001     001  	.BYTE 0,1,1,1,1,1,1,1,1,1,1,1,1,1,1,0
         007757    001     001     001  
         007762    001     001     001  
         007765    001     001     001  
         007770    001     001     001  
         007773    000                  
     768 007774    000     001     001  	.BYTE 0,1,1,0,0,0,0,0,0,0,0,0,0,1,1,0
         007777    000     000     000  
         010002    000     000     000  
         010005    000     000     000  
         010010    000     001     001  
         010013    000                  
     769 010014    000     001     001  	.BYTE 0,1,1,0,0,0,0,0,0,0,0,0,0,1,1,0
         010017    000     000     000  
         010022    000     000     000  
         010025    000     000     000  
         010030    000     001     001  
         010033    000                  
     770 010034    000     001     001  	.BYTE 0,1,1,0,0,1,1,1,1,1,1,0,0,1,1,0
         010037    000     000     001  
         010042    001     001     001  
         010045    001     001     000  
         010050    000     001     001  
         010053    000                  
     771 010054    000     001     001  	.BYTE 0,1,1,0,0,1,1,1,1,1,1,0,0,1,1,0
         010057    000     000     001  
         010062    001     001     001  
         010065    001     001     000  
         010070    000     001     001  
         010073    000                  
     772 010074    000     001     001  	.BYTE 0,1,1,0,0,0,0,1,1,0,0,0,0,1,1,0
         010077    000     000     000  
         010102    000     001     001  
         010105    000     000     000  
         010110    000     001     001  
         010113    000                  
     773 010114    000     001     001  	.BYTE 0,1,1,0,0,0,0,1,1,0,0,0,0,1,1,0
         010117    000     000     000  
         010122    000     001     001  
         010125    000     000     000  
         010130    000     001     001  
         010133    000                  
     774 010134    000     001     001  	.BYTE 0,1,1,0,0,1,1,1,1,1,1,0,0,1,1,0
         010137    000     000     001  
         010142    001     001     001  
         010145    001     001     000  
         010150    000     001     001  
         010153    000                  
     775 010154    000     001     001  	.BYTE 0,1,1,0,0,1,1,1,1,1,1,0,0,1,1,0
         010157    000     000     001  
         010162    001     001     001  
         010165    001     001     000  
         010170    000     001     001  
         010173    000                  
     776 010174    000     001     001  	.BYTE 0,1,1,0,0,0,0,0,0,0,0,0,0,1,1,0
         010177    000     000     000  
         010202    000     000     000  
         010205    000     000     000  
         010210    000     001     001  
         010213    000                  
     777 010214    000     001     001  	.BYTE 0,1,1,0,0,0,0,0,0,0,0,0,0,1,1,0
         010217    000     000     000  
         010222    000     000     000  
         010225    000     000     000  
         010230    000     001     001  
         010233    000                  
     778 010234    000     001     001  	.BYTE 0,1,1,1,1,1,1,1,1,1,1,1,1,1,1,0
         010237    001     001     001  
         010242    001     001     001  
         010245    001     001     001  
         010250    001     001     001  
         010253    000                  
     779 010254    000     000     001  	.BYTE 0,0,1,1,1,1,1,1,1,1,1,1,1,1,0,0
         010257    001     001     001  
         010262    001     001     001  
         010265    001     001     001  
         010270    001     001     000  
         010273    000                  
     780 010274    000     000     000  	.BYTE 0,0,0,0,0,0,0,0,0,0,0,0,0,0,0,0
         010277    000     000     000  
         010302    000     000     000  
         010305    000     000     000  
         010310    000     000     000  
         010313    000                  
     781 010314    000     000     000  	.BYTE 0,0,0,0,0,0,0,0,0,0,0,0,0,0,0,0
         010317    000     000     000  
         010322    000     000     000  
         010325    000     000     000  
         010330    000     000     000  
         010333    000                  
     782 010334    000     000     001  	.BYTE 0,0,1,1,1,1,1,1,1,1,1,1,1,1,0,0
         010337    001     001     001  
         010342    001     001     001  
         010345    001     001     001  
         010350    001     001     000  
         010353    000                  
     783 010354    000     001     001  	.BYTE 0,1,1,1,1,1,1,1,1,1,1,1,1,1,1,0
         010357    001     001     001  
         010362    001     001     001  
         010365    001     001     001  
         010370    001     001     001  
         010373    000                  
     784 010374    000     001     001  	.BYTE 0,1,1,0,0,0,0,0,0,0,0,0,0,1,1,0
         010377    000     000     000  
         010402    000     000     000  
         010405    000     000     000  
         010410    000     001     001  
         010413    000                  
     785 010414    000     001     001  	.BYTE 0,1,1,0,0,0,0,0,0,0,0,0,0,1,1,0
         010417    000     000     000  
         010422    000     000     000  
         010425    000     000     000  
         010430    000     001     001  
         010433    000                  
     786 010434    000     001     001  	.BYTE 0,1,1,0,0,3,3,3,2,2,2,0,0,1,1,0
         010437    000     000     003  
         010442    003     003     002  
         010445    002     002     000  
         010450    000     001     001  
         010453    000                  
     787 010454    000     001     001  	.BYTE 0,1,1,0,0,3,3,3,2,2,2,0,0,1,1,0
         010457    000     000     003  
         010462    003     003     002  
         010465    002     002     000  
         010470    000     001     001  
         010473    000                  
     788 010474    000     001     001  	.BYTE 0,1,1,0,0,0,0,3,2,0,0,0,0,1,1,0
         010477    000     000     000  
         010502    000     003     002  
         010505    000     000     000  
         010510    000     001     001  
         010513    000                  
     789 010514    000     001     001  	.BYTE 0,1,1,0,0,0,0,3,2,0,0,0,0,1,1,0
         010517    000     000     000  
         010522    000     003     002  
         010525    000     000     000  
         010530    000     001     001  
         010533    000                  
     790 010534    000     001     001  	.BYTE 0,1,1,0,0,3,3,3,2,2,2,0,0,1,1,0
         010537    000     000     003  
         010542    003     003     002  
         010545    002     002     000  
         010550    000     001     001  
         010553    000                  
     791 010554    000     001     001  	.BYTE 0,1,1,0,0,3,3,3,2,2,2,0,0,1,1,0
         010557    000     000     003  
         010562    003     003     002  
         010565    002     002     000  
         010570    000     001     001  
         010573    000                  
     792 010574    000     001     001  	.BYTE 0,1,1,0,0,0,0,0,0,0,0,0,0,1,1,0
         010577    000     000     000  
         010602    000     000     000  
         010605    000     000     000  
         010610    000     001     001  
         010613    000                  
     793 010614    000     001     001  	.BYTE 0,1,1,0,0,0,0,0,0,0,0,0,0,1,1,0
         010617    000     000     000  
         010622    000     000     000  
         010625    000     000     000  
         010630    000     001     001  
         010633    000                  
     794 010634    000     001     001  	.BYTE 0,1,1,1,1,1,1,1,1,1,1,1,1,1,1,0
         010637    001     001     001  
         010642    001     001     001  
         010645    001     001     001  
         010650    001     001     001  
         010653    000                  
     795 010654    000     000     001  	.BYTE 0,0,1,1,1,1,1,1,1,1,1,1,1,1,0,0
         010657    001     001     001  
         010662    001     001     001  
         010665    001     001     001  
         010670    001     001     000  
         010673    000                  
     796 010674    000     000     000  	.BYTE 0,0,0,0,0,0,0,0,0,0,0,0,0,0,0,0
         010677    000     000     000  
         010702    000     000     000  
         010705    000     000     000  
         010710    000     000     000  
         010713    000                  
     797                                	.EVEN
     798                                CALCD:
     799 010714 012700  011324          	MOV #DIVS,R0
     800 010720 012705  000340          	MOV #224.,R5
     801 010724 012702  000020          1$:	MOV #16.,R2
     802 010730 000302                  	SWAB R2
     803 010732 012704  000401          	MOV #257.,R4
     804 010736 160504                  	SUB R5,R4
     805 010740 004767  013766'         	CALL SPDIV
     806 010744 110220                  	MOVB R2,(R0)+
     807 010746 077512                  	SOB R5,1$
     808 010750 012700  011764          	MOV #WRC+64.,R0
     809 010754 010003                  	MOV R0,R3
     810 010756 012705  000040          	MOV #32.,R5
     811 010762 010340                  100$:	MOV R3,-(R0)
     812 010764 010046                  	MOV R0,-(SP)
     813 010766 010346                  	MOV R3,-(SP)
     814 010770 012702  010000          	MOV #4096.,R2
     815 010774 010504                  	MOV R5,R4
     816 010776 004767  013766'         	CALL SPDIV
     817 011002 012603                  	MOV (SP)+,R3
     818 011004 010504                  	MOV R5,R4
     819 011006 005000                  	CLR R0
     820 011010 010001                  101$:	MOV R0,R1
     821 011012 000301                  	SWAB R1
     822 011014 106301                  	ASLB R1
     823 011016 110123                  	MOVB R1,(R3)+
     824 011020 060200                  	ADD R2,R0
     825 011022 077406                  	SOB R4,101$
     826 011024 012600                  	MOV (SP)+,R0
     827 011026 077523                  	SOB R5,100$
     828 011030 012700  021375          	MOV #FRBF2+1,R0
     829 011034 012701  000100          	MOV #64.,R1
     830 011040 112710  000040          102$:	MOVB #32.,(R0)
     831 011044 062700  000002          	ADD #2,R0
     832 011050 077105                  	SOB R1,102$
     833 011052 012700  006714          	MOV #TXTDAT,R0
     834 011056 012701  064000          	MOV #TXTH1,R1
     835 011062 012702  002000          	MOV #1024.,R2
     836 011066 112003                  103$:	MOVB (R0)+,R3
     837 011070 006303                  	ASL R3
     838 011072 016304  011136          	MOV MTRLV(R3),R4
     839 011076 011461  004000          	MOV (R4),2048.(R1)
     840 011102 016304  011114          	MOV MTRLH(R3),R4
     841 011106 011421                  	MOV (R4),(R1)+
     842 011110 077212                  	SOB R2,103$
     843                                	RET
       1 011112 000207                  	RETURN
     844 011114 011160                  MTRLH:	.WORD MCLR1+0.
     845 011116 011166  011164  011162  	.WORD MCLR1+6.,MCLR1+4.,MCLR1+2.,MCLR1+8.
         011124 011170                  
     846 011126 011200  011176  011174  	.WORD MCLR1+16.,MCLR1+14.,MCLR1+12.,MCLR1+10.
         011134 011172                  
     847 011136 011202                  MTRLV:	.WORD MCLR2+0.
     848 011140 011210  011206  011204  	.WORD MCLR2+6.,MCLR2+4.,MCLR2+2.,MCLR2+8.
         011146 011212                  
     849 011150 011222  011220  011216  	.WORD MCLR2+16.,MCLR2+14.,MCLR2+12.,MCLR2+10.
         011156 011214                  
     850 011160 000000                  MCLR1:	.WORD 0
     851 011162 177777                  	.WORD ^B1111111111111111
     852 011164 177400                  	.WORD ^B1111111100000000
     853 011166 000377                  	.WORD ^B0000000011111111
     854 011170 177652                  	.WORD ^B1111111110101010
     855 011172 125377                  	.WORD ^B1010101011111111
     856 011174 125231                  	.WORD ^B1010101010011001
     857 011176 042252                  	.WORD ^B0100010010101010
     858 011200 052504                  	.WORD ^B0101010101000100
     859 011202 000000                  MCLR2:	.WORD 0
     860 011204 146314                  	.WORD ^B1100110011001100
     861 011206 031400                  	.WORD ^B0011001100000000
     862 011210 000314                  	.WORD ^B0000000011001100
     863 011212 031442                  	.WORD ^B0011001100100010
     864 011214 104314                  	.WORD ^B1000100011001100
     865 011216 021021                  	.WORD ^B0010001000010001
     866 011220 042210                  	.WORD ^B0100010010001000
     867 011222 010400                  	.WORD ^B0001000100000000
     868 011224 000210                  MFLRT:	.WORD ^B0000000010001000
     869 011226 000042                  	.WORD ^B0000000000100010
     870 011230 000210                  	.WORD ^B0000000010001000
     871 011232 000042                  	.WORD ^B0000000000100010
     872 011234 000210                  	.WORD ^B0000000010001000
     873 011236 000042                  	.WORD ^B0000000000100010
     874 011240 000210                  	.WORD ^B0000000010001000
     875 011242 000042                  	.WORD ^B0000000000100010
     876 011244 000210                  	.WORD ^B0000000010001000
     877 011246 000042                  	.WORD ^B0000000000100010
     878 011250 000210                  	.WORD ^B0000000010001000
     879 011252 000042                  	.WORD ^B0000000000100010
     880 011254 000210                  	.WORD ^B0000000010001000
     881 011256 000042                  	.WORD ^B0000000000100010
     882 011260 000210                  	.WORD ^B0000000010001000
     883 011262 000042                  	.WORD ^B0000000000100010
     884 011264 000210                  	.WORD ^B0000000010001000
     885 011266 000042                  	.WORD ^B0000000000100010
     886 011270 000210                  	.WORD ^B0000000010001000
     887 011272 000042                  	.WORD ^B0000000000100010
     888 011274 000210                  	.WORD ^B0000000010001000
     889 011276 000042                  	.WORD ^B0000000000100010
     890 011300 000210                  	.WORD ^B0000000010001000
     891 011302 000042                  	.WORD ^B0000000000100010
     892 011304 000210                  	.WORD ^B0000000010001000
     893 011306 000042                  	.WORD ^B0000000000100010
     894 011310 000210                  	.WORD ^B0000000010001000
     895 011312 000042                  	.WORD ^B0000000000100010
     896 011314 000210                  	.WORD ^B0000000010001000
     897 011316 000042                  	.WORD ^B0000000000100010
     898 011320 000210                  	.WORD ^B0000000010001000
     899 011322 000042                  	.WORD ^B0000000000100010
     900 011324                         DIVS:	.BLKB 224.
     901                                	.EVEN
     902 011664                         WRC:	.BLKB 592.
     903                                	.EVEN
     904                                
     905 013004 006300                  PREPM:	ASL R0
     906 013006 016000  004562          	MOV MAPLST(R0),R0
     907 013012 012067  001372'         	MOV (R0)+,PLX
     908 013016 012067  001374'         	MOV (R0)+,PLY
     909 013022 012067  001376'         	MOV (R0)+,PLA
     910 013026 012701  020172          	MOV #MAP,R1
     911 013032 004767  034326'         	CALL UNPK
     912                                	RET
       1 013036 000207                  	RETURN
     913 013040 012705  020572          CLVIS:	MOV #VIS,R5
     914 013044 012704  000020          	MOV #16.,R4
     915 013050 012703  177777          	MOV #-1.,R3
     916 013054 010325                  1$:	MOV R3,(R5)+
     917 013056 010325                  	MOV R3,(R5)+
     918 013060 010325                  	MOV R3,(R5)+
     919 013062 010325                  	MOV R3,(R5)+
     920 013064 010325                  	MOV R3,(R5)+
     921 013066 010325                  	MOV R3,(R5)+
     922 013070 010325                  	MOV R3,(R5)+
     923 013072 010325                  	MOV R3,(R5)+
     924 013074 077411                  	SOB R4,1$
     925                                	RET
       1 013076 000207                  	RETURN
     926 013100 074204                  MLDVX:	XOR R2,R4
     927 013102 074402                  	XOR R4,R2
     928 013104 074204                  	XOR R2,R4
     929 013106 006302                  MLDVN:	ASL R2
     930 013110 006302                  	ASL R2
     931 013112 006302                  	ASL R2
     932 013114 006302                  	ASL R2
     933 013116 006302                  	ASL R2
     934 013120 006302                  	ASL R2
     935 013122 004767  013766'         	CALL SPDIV
     936                                	RET
       1 013126 000207                  	RETURN
     937 013130 010046                  GETANG:	MOV R0,-(SP)
     938 013132 010146                  	MOV R1,-(SP)
     939 013134 010246                  	MOV R2,-(SP)
     940 013136 010346                  	MOV R3,-(SP)
     941 013140 010446                  	MOV R4,-(SP)
     942 013142 016700  001372'         	MOV PLX,R0
     943 013146 016701  001374'         	MOV PLY,R1
     944 013152 016402  000004          	MOV 4.(R4),R2
     945 013156 016404  000006          	MOV 6.(R4),R4
     946 013162 160002                  	SUB R0,R2
     947 013164 002037                  	BGE 1$
     948 013166 160104                  	SUB R1,R4
     949 013170 002016                  	BGE 2$
     950 013172 005402                  	NEG R2
     951 013174 005404                  	NEG R4
     952 013176 020204                  	CMP R2,R4
     953 013200 003403                  	BLE 3$
     954 013202 004767  013100'         	CALL MLDVX
     955 013206 000464                  	BR 99$
     956                                3$:
     957 013210 004767  013106'         	CALL MLDVN
     958 013214 010200                  	MOV R2,R0
     959 013216 012702  000177          	MOV #128.-1.,R2
     960 013222 160002                  	SUB R0,R2
     961 013224 000455                  	BR 99$
     962 013226 005402                  2$:	NEG R2
     963 013230 020204                  	CMP R2,R4
     964 013232 003407                  	BLE 4$
     965 013234 004767  013100'         	CALL MLDVX
     966 013240 010200                  	MOV R2,R0
     967 013242 012702  000777          	MOV #64.+64.+384.-1.,R2
     968 013246 160002                  	SUB R0,R2
     969 013250 000443                  	BR 99$
     970                                4$:
     971 013252 004767  013106'         	CALL MLDVN
     972 013256 062702  000600          	ADD #384.,R2
     973 013262 000436                  	BR 99$
     974 013264 160104                  1$:	SUB R1,R4
     975 013266 002017                  	BGE 5$
     976 013270 005404                  	NEG R4
     977 013272 020204                  	CMP R2,R4
     978 013274 003407                  	BLE 6$
     979 013276 004767  013100'         	CALL MLDVX
     980 013302 010200                  	MOV R2,R0
     981 013304 012702  000400          	MOV #128.+64.+64.,R2
     982 013310 160002                  	SUB R0,R2
     983 013312 000422                  	BR 99$
     984                                6$:
     985 013314 004767  013106'         	CALL MLDVN
     986 013320 062702  000200          	ADD #128.,R2
     987 013324 000415                  	BR 99$
     988 013326 020204                  5$:	CMP R2,R4
     989 013330 003405                  	BLE 7$
     990 013332 004767  013100'         	CALL MLDVX
     991 013336 062702  000400          	ADD #256.,R2
     992 013342 000406                  	BR 99$
     993                                7$:
     994 013344 004767  013106'         	CALL MLDVN
     995 013350 010200                  	MOV R2,R0
     996 013352 012702  000600          	MOV #256.+128.,R2
     997 013356 160002                  	SUB R0,R2
     998 013360 012604                  99$:	MOV (SP)+,R4
     999 013362 010264  000010          	MOV R2,8.(R4)
    1000 013366 012603                  	MOV (SP)+,R3
    1001 013370 012602                  	MOV (SP)+,R2
    1002 013372 012601                  	MOV (SP)+,R1
    1003 013374 012600                  	MOV (SP)+,R0
    1004                                	RET
       1 013376 000207                  	RETURN
    1005 013400 005000                  CLPSC:	CLR R0
    1006 013402 012703  016032          	MOV #PSCTAB,R3
    1007 013406 012705  016132          	MOV #PSCTAB+64.,R5
    1008 013412 016001  005544          1$:	MOV SCLR(R0),R1
    1009 013416 062700  000002          	ADD #2,R0
    1010 013422 010102                  	MOV R1,R2
    1011 013424 006202                  	ASR R2
    1012 013426 010046                  	MOV R0,-(SP)
    1013 013430 010523                  	MOV R5,(R3)+
    1014 013432 010204                  2$:	MOV R2,R4
    1015 013434 042704  000377          	BIC #255.,R4
    1016 013440 000304                  	SWAB R4
    1017 013442 006304                  	ASL R4
    1018 013444 016425  005644          	MOV BTT(R4),(R5)+
    1019 013450 060102                  	ADD R1,R2
    1020 013452 162716  000002          	SUB #2,(SP)
    1021 013456 001365                  	BNE 2$
    1022 013460 005726                  	TST (SP)+
    1023 013462 022700  000100          	CMP #64.,R0
    1024 013466 001351                  	BNE 1$
    1025                                	RET
       1 013470 000207                  	RETURN
    1026 013472 006300                  GSEG1:	ASL R0
    1027 013474 016001  004162          	MOV SCTAB(R0),R1
    1028                                	RET
       1 013500 000207                  	RETURN
    1029 013502 004767  013520'         GSEG2:	CALL GSEG4
    1030 013506 000402                  	BR GSEGN
    1031 013510 004767  013472'         GSEG3:	CALL GSEG1
    1032 013514 005401                  GSEGN:	NEG R1
    1033                                	RET
       1 013516 000207                  	RETURN
    1034 013520 012701  000177          GSEG4:	MOV #177,R1
    1035 013524 160001                  	SUB R0,R1
    1036 013526 010100                  	MOV R1,R0
    1037 013530 000760                  	BR GSEG1
    1038 013532 010001                  GCOS:	MOV R0,R1
    1039 013534 042700  177600          	BIC #177600,R0
    1040 013540 042701  177177          	BIC #177177,R1
    1041 013544 001752                  	BEQ GSEG1
    1042 013546 020127  000200          	CMP R1,#200
    1043 013552 001753                  	BEQ GSEG2
    1044 013554 020127  000400          	CMP R1,#400
    1045 013560 001753                  	BEQ GSEG3
    1046 013562 000756                  	BR GSEG4
    1047 013564 010001                  GSIN:	MOV R0,R1
    1048 013566 042700  177600          	BIC #177600,R0
    1049 013572 042701  177177          	BIC #177177,R1
    1050 013576 001750                  	BEQ GSEG4
    1051 013600 020127  000200          	CMP R1,#200
    1052 013604 001732                  	BEQ GSEG1
    1053 013606 020127  000400          	CMP R1,#400
    1054 013612 001733                  	BEQ GSEG2
    1055 013614 000735                  	BR GSEG3
    1056 013616 004767  013624'         GSNCS:	CALL GSNCS2
    1057 013622 000416                  	BR GSNCS3
    1058 013624 010046                  GSNCS2:	MOV R0,-(SP)
    1059 013626 004767  013532'         	CALL GCOS
    1060 013632 012600                  	MOV (SP)+,R0
    1061 013634 010146                  	MOV R1,-(SP)
    1062 013636 004767  013564'         	CALL GSIN
    1063 013642 012600                  	MOV (SP)+,R0
    1064 013644 000300                  	SWAB R0
    1065 013646 110000                  	MOVB R0,R0
    1066 013650 006200                  	ASR R0
    1067 013652 000301                  	SWAB R1
    1068 013654 110101                  	MOVB R1,R1
    1069 013656 006201                  	ASR R1
    1070 013660 006201                  GSNCS3:	ASR R1
    1071 013662 006200                  	ASR R0
    1072                                	RET
       1 013664 000207                  	RETURN
    1073 013666 010002                  SPMULS:	MOV R0,R2
    1074 013670 001431                  	BEQ 3$
    1075 013672 100001                  	BPL 1$
    1076 013674 005400                  	NEG R0
    1077 013676 005701                  1$:	TST R1
    1078 013700 001426                  	BEQ 33$
    1079 013702 100002                  	BPL 2$
    1080 013704 074102                  	XOR R1,R2
    1081 013706 005401                  	NEG R1
    1082 013710 010246                  2$:	MOV R2,-(SP)
    1083 013712 020001                  	CMP R0,R1
    1084 013714 101403                  	BLOS 8$
    1085 013716 074001                  	XOR R0,R1
    1086 013720 074100                  	XOR R1,R0
    1087 013722 074001                  	XOR R0,R1
    1088 013724 005002                  8$:	CLR R2
    1089 013726 000403                  	BR 6$
    1090 013730 103001                  4$:	BCC 5$
    1091 013732 060102                  	ADD R1,R2
    1092 013734 006301                  5$:	ASL R1
    1093 013736 006000                  6$:	ROR R0
    1094 013740 001373                  	BNE 4$
    1095 013742 103001                  	BCC 7$
    1096 013744 060102                  	ADD R1,R2
    1097 013746 005726                  7$:	TST (SP)+
    1098 013750 100001                  	BPL 3$
    1099 013752 005402                  	NEG R2
    1100                                3$:	RET
       1 013754 000207                  	RETURN
    1101 013756 005002                  33$:	CLR R2
    1102                                	RET
       1 013760 000207                  	RETURN
    1103 013762 012702  040000          SPDVX:	MOV #16384.,R2
    1104 013766 005001                  SPDIV:	CLR R1
    1105 013770 020402                  	CMP R4,R2
    1106 013772 001425                  	BEQ 4$
    1107 013774 101027                  	BHI 5$
    1108 013776 005003                  	CLR R3
    1109 014000 005203                  1$:	INC R3
    1110 014002 006304                  	ASL R4
    1111 014004 103403                  	BCS 3$
    1112 014006 020204                  	CMP R2,R4
    1113 014010 103373                  	BHIS 1$
    1114 014012 000241                  	CLC
    1115 014014 006004                  3$:	ROR R4
    1116 014016 020402                  	CMP R4,R2
    1117 014020 101006                  	BHI 2$
    1118 014022 160402                  	SUB R4,R2
    1119 014024 000261                  	SEC
    1120 014026 006101                  	ROL R1
    1121 014030 077307                  	SOB R3,3$
    1122 014032 010102                  	MOV R1,R2
    1123                                	RET
       1 014034 000207                  	RETURN
    1124 014036 006301                  2$:	ASL R1
    1125 014040 077313                  	SOB R3,3$
    1126 014042 010102                  	MOV R1,R2
    1127                                	RET
       1 014044 000207                  	RETURN
    1128 014046 012702  000001          4$:	MOV #1,R2
    1129                                	RET
       1 014052 000207                  	RETURN
    1130 014054 005002                  5$:	CLR R2
    1131                                	RET
       1 014056 000207                  	RETURN
    1132 014060 004767  014550'         CLRM:	CALL CLOPOS
    1133 014064 012703  100010          	MOV #C_TADDR,R3
    1134 014070 005000                  	CLR R0
    1135 014072 012702  000100          	MOV #64.,R2
    1136 014076 012701  000020          2$:	MOV #16.,R1
    1137 014102 010337  176640          1$:	MOV R3,@#176640
    1138 014106 010037  176642          	MOV R0,@#176642
    1139 014112 005203                  	INC R3
    1140 014114 077106                  	SOB R1,1$
    1141 014116 062703  000100          	ADD #C_SCRWIH-16.,R3
    1142 014122 077213                  	SOB R2,2$
    1143                                	RET
       1 014124 000207                  	RETURN
    1144 014126 004767  014550'         DRAWM:	CALL CLOPOS
    1145 014132 012702  020172          	MOV #MAP,R2
    1146 014136 012703  100010          	MOV #C_TADDR,R3
    1147 014142 012705  176640          	MOV #176640,R5
    1148 014146 012700  176642          	MOV #176642,R0
    1149 014152 012746  000020          	MOV #16.,-(SP)
    1150 014156 012701  000020          3$:	MOV #16.,R1
    1151 014162 005004                  2$:	CLR R4
    1152 014164 105722                  	TSTB (R2)+
    1153 014166 001402                  	BEQ 1$
    1154 014170 012704  000377          	MOV #377,R4
    1155 014174 010315                  1$:	MOV R3,(R5)
    1156 014176 010410                  	MOV R4,(R0)
    1157 014200 062703  000120          	ADD #C_SCRWIH,R3
    1158 014204 010315                  	MOV R3,(R5)
    1159 014206 010410                  	MOV R4,(R0)
    1160 014210 062703  000120          	ADD #C_SCRWIH,R3
    1161 014214 010315                  	MOV R3,(R5)
    1162 014216 010410                  	MOV R4,(R0)
    1163 014220 062703  000120          	ADD #C_SCRWIH,R3
    1164 014224 010315                  	MOV R3,(R5)
    1165 014226 010410                  	MOV R4,(R0)
    1166 014230 162703  000357          	SUB #C_SCRWIH+C_SCRWIH+C_SCRWIH-1.,R3
    1167 014234 077126                  	SOB R1,2$
    1168 014236 062703  000460          	ADD #C_SCRWIH+C_SCRWIH+C_SCRWIH+C_SCRWIH-16.,R3
    1169 014242 005316                  	DEC (SP)
    1170 014244 001344                  	BNE 3$
    1171 014246 005726                  	TST (SP)+
    1172                                	RET
       1 014250 000207                  	RETURN
    1173 014252 006201                  PLPNT:	ASR R1
    1174 014254 006201                  	ASR R1
    1175 014256 006201                  	ASR R1
    1176 014260 010102                  	MOV R1,R2
    1177 014262 042702  177771          	BIC #177771,R2
    1178 014266 006201                  	ASR R1
    1179 014270 006201                  	ASR R1
    1180 014272 006201                  	ASR R1
    1181 014274 006203                  	ASR R3
    1182 014276 006203                  	ASR R3
    1183 014300 006203                  	ASR R3
    1184 014302 006203                  	ASR R3
    1185 014304 070327  000120          	MUL #C_SCRWIH,R3
    1186 014310 060103                  	ADD R1,R3
    1187 014312 062703  100010          	ADD #C_TADDR,R3
    1188 014316 010337  176640          	MOV R3,@#176640
    1189 014322 013703  176642          	MOV @#176642,R3
    1190 014326 046203  004132          	BIC CLMSK(R2),R3
    1191 014332 005300                  	DEC R0
    1192 014334 001003                  	BNE 1$
    1193 014336 010337  176642          4$:	MOV R3,@#176642
    1194                                	RET
       1 014342 000207                  	RETURN
    1195 014344 005300                  1$:	DEC R0
    1196 014346 001003                  	BNE 2$
    1197 014350 056203  004132          	BIS DRMS1(R2),R3
    1198 014354 000770                  	BR 4$
    1199 014356 005300                  2$:	DEC R0
    1200 014360 001003                  	BNE 3$
    1201 014362 056203  004142          	BIS DRMS2(R2),R3
    1202 014366 000763                  	BR 4$
    1203 014370 005300                  3$:	DEC R0
    1204 014372 001361                  	BNE 4$
    1205 014374 056203  004152          	BIS DRMS3(R2),R3
    1206 014400 000756                  	BR 4$
    1207 014402 012704  014566          MNDRW:	MOV #OPOS,R4
    1208 014406 012705  031254          	MOV #SMNBF,R5
    1209 014412 011401                  2$:	MOV (R4),R1
    1210 014414 001406                  	BEQ 5$
    1211 014416 016403  000002          	MOV 2(R4),R3
    1212 014422 012700  000001          	MOV #1.,R0
    1213 014426 004767  014252'         	CALL PLPNT
    1214 014432 105715                  5$:	TSTB (R5)
    1215 014434 001413                  	BEQ 3$
    1216 014436 016501  000004          	MOV 4.(R5),R1
    1217 014442 010124                  	MOV R1,(R4)+
    1218 014444 016503  000006          	MOV 6.(R5),R3
    1219 014450 010324                  	MOV R3,(R4)+
    1220 014452 012700  000003          	MOV #3.,R0
    1221 014456 004767  014252'         	CALL PLPNT
    1222 014462 000402                  	BR 4$
    1223 014464 005024                  3$:	CLR (R4)+
    1224 014466 005024                  	CLR (R4)+
    1225 014470 062705  000014          4$:	ADD #MNRS,R5
    1226 014474 022705  032024          	CMP #SMNBFE,R5
    1227 014500 001344                  	BNE 2$
    1228 014502 011401                  	MOV (R4),R1
    1229 014504 001406                  	BEQ 6$
    1230 014506 016403  000002          	MOV 2(R4),R3
    1231 014512 012700  000001          	MOV #1.,R0
    1232 014516 004767  014252'         	CALL PLPNT
    1233 014522 016701  001400'         6$:	MOV SPLX,R1
    1234 014526 016703  001402'         	MOV SPLY,R3
    1235 014532 010124                  	MOV R1,(R4)+
    1236 014534 010324                  	MOV R3,(R4)+
    1237 014536 012700  000002          	MOV #2,R0
    1238 014542 004767  014252'         	CALL PLPNT
    1239                                	RET
       1 014546 000207                  	RETURN
    1240 014550 012705  014566          CLOPOS:	MOV #OPOS,R5
    1241 014554 005025                  	CLR (R5)+
    1242 014556 020527  014762          	CMP R5,#OPOS+124.
    1243 014562 001374                  	BNE .-6
    1244                                	RET
       1 014564 000207                  	RETURN
    1245 014566                         OPOS:	.BLKW 62.
    1246 014762 010003                  CHECKP:	MOV R0,R3
    1247 014764 010102                  	MOV R1,R2
    1248 014766 006303                  	ASL R3
    1249 014770 006303                  	ASL R3
    1250 014772 000303                  	SWAB R3
    1251 014774 006202                  	ASR R2
    1252 014776 006202                  	ASR R2
    1253 015000 042702  000017          	BIC #15.,R2
    1254 015004 150302                  	BISB R3,R2
    1255                                	RET
       1 015006 000207                  	RETURN
    1256 015010 010046                  CHECK:	MOV R0,-(SP)
    1257 015012 010146                  	MOV R1,-(SP)
    1258 015014 010246                  	MOV R2,-(SP)
    1259 015016 010346                  	MOV R3,-(SP)
    1260 015020 012704  015066          	MOV #DIRS,R4
    1261 015024 062400                  1$:	ADD (R4)+,R0
    1262 015026 062401                  	ADD (R4)+,R1
    1263 015030 004767  014762'         	CALL CHECKP
    1264 015034 105762  020172          	TSTB MAP(R2)
    1265 015040 001004                  	BNE 2$
    1266 015042 020427  015126          	CMP R4,#DIRS+32.
    1267 015046 001366                  	BNE 1$
    1268 015050 005004                  	CLR R4
    1269 015052 012603                  2$:	MOV (SP)+,R3
    1270 015054 012602                  	MOV (SP)+,R2
    1271 015056 012601                  	MOV (SP)+,R1
    1272 015060 012600                  	MOV (SP)+,R0
    1273 015062 005704                  	TST R4
    1274                                	RET
       1 015064 000207                  	RETURN
    1275 015066 177764  177764  000014  DIRS:	.WORD -12.,-12.,12.,0.,12.,0.,0.,12.
         015074 000000  000014  000000  
         015102 000000  000014          
    1276 015106 000000  000014  177764  	.WORD 0.,12.,-12.,0.,-12.,0.,0.,-12.
         015114 000000  177764  000000  
         015122 000000  177764          
    1277 015126 000327                  FRN:	.WORD 327
    1278 015130 000000                  RAN:	.WORD 0
    1279 015132 105267  015130'         	INCB RAN
    1280 015136 106167  015131'         	ROLB FRN+3
    1281 015142 062767  000000  015130' MM:	ADD #0,RAN
    1282 015150 062767  003337  015144' 	ADD #3337,MM+2
    1283                                	RET
       1 015156 000207                  	RETURN
    1284 015160 010067  035140'         PRCH:	MOV R0,PPUV1
    1285 015164 010167  035142'         	MOV R1,PPUV2
    1286 015170 012700  000010          	MOV #F_PMSG,R0
    1287 015174 004767  001242'         	CALL SCH2
    1288 015200 005737  035150          	TST @#PpuComm
    1289 015204 001375                  	BNE .-4
    1290 015206 016701  035142'         	MOV PPUV2,R1
    1291                                	RET
       1 015212 000207                  	RETURN
    1292 015214 005005                  DOUT:	CLR R5
    1293 015216 162704  000012          	SUB #10.,R4
    1294 015222 103442                  	BCS 1$
    1295 015224 005205                  	INC R5
    1296 015226 162704  000012          	SUB #10.,R4
    1297 015232 103436                  	BCS 1$
    1298 015234 005205                  	INC R5
    1299 015236 162704  000012          	SUB #10.,R4
    1300 015242 103432                  	BCS 1$
    1301 015244 005205                  	INC R5
    1302 015246 162704  000012          	SUB #10.,R4
    1303 015252 103426                  	BCS 1$
    1304 015254 005205                  	INC R5
    1305 015256 162704  000012          	SUB #10.,R4
    1306 015262 103422                  	BCS 1$
    1307 015264 005205                  	INC R5
    1308 015266 162704  000012          	SUB #10.,R4
    1309 015272 103416                  	BCS 1$
    1310 015274 005205                  	INC R5
    1311 015276 162704  000012          	SUB #10.,R4
    1312 015302 103412                  	BCS 1$
    1313 015304 005205                  	INC R5
    1314 015306 162704  000012          	SUB #10.,R4
    1315 015312 103406                  	BCS 1$
    1316 015314 005205                  	INC R5
    1317 015316 162704  000012          	SUB #10.,R4
    1318 015322 103402                  	BCS 1$
    1319 015324 005205                  	INC R5
    1320 015326 000402                  	BR 2$
    1321 015330 062704  000012          1$:	ADD #10.,R4
    1322 015334 010500                  2$:	MOV R5,R0
    1323 015336 062700  000060          	ADD #'0,R0
    1324 015342 004767  015160'         	CALL PRCH
    1325 015346 010400                  	MOV R4,R0
    1326 015350 062700  000060          	ADD #'0,R0
    1327 015354 004767  015160'         	CALL PRCH
    1328                                	RET
       1 015360 000207                  	RETURN
    1329 015362 005067  001364'         INISCR:	CLR SCORE
    1330 015366 012767  000001  001366' 	MOV #1.,OLDSCR
    1331                                	RET
       1 015374 000207                  	RETURN
    1332 015376 026767  001364' 001366' PRNSCR:	CMP SCORE,OLDSCR
    1333 015404 001421                  	BEQ 1$
    1334 015406 012701  100064          	MOV #SCOREP,R1
    1335 015412 116704  001364'         	MOVB SCORE,R4
    1336 015416 004767  015214'         	CALL DOUT
    1337 015422 112700  000072          	MOVB #':,R0
    1338 015426 004767  015160'         	CALL PRCH
    1339 015432 116704  001365'         	MOVB SCORE+1,R4
    1340 015436 004767  015214'         	CALL DOUT
    1341 015442 016767  001364' 001366' 	MOV SCORE,OLDSCR
    1342                                1$:	RET
       1 015450 000207                  	RETURN
    1343 015452 112767  000012  001362' INIAM:	MOVB #10.,AMMO
    1344 015460 112767  000001  001363' 	MOVB #1.,OLDAM
    1345                                	RET
       1 015466 000207                  	RETURN
    1346 015470 126767  001362' 001363' PRNAM:	CMPB AMMO,OLDAM
    1347 015476 001411                  	BEQ 1$
    1348 015500 012701  100050          	MOV #AMMOP,R1
    1349 015504 116704  001362'         	MOVB AMMO,R4
    1350 015510 004767  015214'         	CALL DOUT
    1351 015514 116767  001362' 001363' 	MOVB AMMO,OLDAM
    1352                                1$:	RET
       1 015522 000207                  	RETURN
    1353 015524 006305                  PRNMS:	ASL R5
    1354 015526 016505  006624          	MOV MSGPTR(R5),R5
    1355 015532 012501                  	MOV (R5)+,R1
    1356 015534 112500                  2$:	MOVB (R5)+,R0
    1357 015536 001403                  	BEQ 1$
    1358 015540 004767  015160'         	CALL PRCH
    1359 015544 000773                  	BR 2$
    1360                                1$:	RET
       1 015546 000207                  	RETURN
    1361 015550 012705  103250          CLMS:	MOV #MSGLN+20,R5
    1362 015554 012703  000050          	MOV #40.,R3
    1363 015560 012704  000060          2$:	MOV #60,R4
    1364 015564 010537  176640          1$:	MOV R5,@#176640
    1365 015570 005205                  	INC R5
    1366 015572 005037  176642          	CLR @#176642
    1367 015576 077406                  	SOB R4,1$
    1368 015600 062705  000040          	ADD #C_SCRWIH-60,R5
    1369 015604 077313                  	SOB R3,2$
    1370                                	RET
       1 015606 000207                  	RETURN
    1371 015610 010046                  CORRA:	MOV R0,-(SP)
    1372 015612 010146                  	MOV R1,-(SP)
    1373 015614 010246                  	MOV R2,-(SP)
    1374 015616 010346                  	MOV R3,-(SP)
    1375 015620 010446                  	MOV R4,-(SP)
    1376 015622 010546                  	MOV R5,-(SP)
    1377 015624 005027                  	CLR (PC)+
    1378 015626 000000                  STEPN:	.WORD 0
    1379 015630 016705  030514'         	MOV MNBF+8.,R5
    1380 015634 166705  001376'         	SUB PLA,R5
    1381 015640 012704  015730          	MOV #STEPC,R4
    1382 015644 012703  000012          	MOV #10.,R3
    1383 015650 010500                  1$:	MOV R5,R0
    1384 015652 012401                  	MOV (R4)+,R1
    1385 015654 004767  013666'         	CALL SPMULS
    1386 015660 006202                  	ASR R2
    1387 015662 006202                  	ASR R2
    1388 015664 006202                  	ASR R2
    1389 015666 006202                  	ASR R2
    1390 015670 006202                  	ASR R2
    1391 015672 006202                  	ASR R2
    1392 015674 066702  001376'         	ADD PLA,R2
    1393 015700 042702  177000          	BIC #177000,R2
    1394 015704 010264  000022          	MOV R2,20.-2.(R4)
    1395 015710 077321                  	SOB R3,1$
    1396 015712 012605                  	MOV (SP)+,R5
    1397 015714 012604                  	MOV (SP)+,R4
    1398 015716 012603                  	MOV (SP)+,R3
    1399 015720 012602                  	MOV (SP)+,R2
    1400 015722 012601                  	MOV (SP)+,R1
    1401 015724 012600                  	MOV (SP)+,R0
    1402                                	RET
       1 015726 000207                  	RETURN
    1403 015730 000002  000006  000015  STEPC:	.WORD 2.,6.,13.,22.,32.,42.,51.,58.,62.,64.
         015736 000026  000040  000052  
         015744 000063  000072  000076  
         015752 000100                  
    1404 015754                         STEPV:	.BLKW 10.
    1405 016000 016700  015626'         SETTA:	MOV STEPN,R0
    1406 016004 020027  000024          	CMP R0,#20.
    1407 016010 001407                  	BEQ 1$
    1408 016012 062700  000002          	ADD #2,R0
    1409 016016 010067  015626'         	MOV R0,STEPN
    1410 016022 016067  015752  001376' 	MOV STEPV-2(R0),PLA
    1411                                1$:	RET
       1 016030 000207                  	RETURN
    1412 016032                         PSCTAB:	.BLKB 1120.
    1413                                
    1414 020172                         MAP:	.BLKB 256.
    1415 020572                         VIS:	.BLKB 256.
    1416                                	.EVEN
    1417 021172                         FRBF1:	.BLKW 65.
    1418 021374                         FRBF2:	.BLKW 65.
    1419 021576                         FRBF3:	.BLKW 65.
    1420 022000 012705  000176          DRDIFF:	MOV #128.-2.,R5
    1421                                
    1422 022004 016502  021172          FF:	MOV FRBF1(R5),R2
    1423 022010 110200                  	MOVB R2,R0
    1424 022012 105002                  	CLRB R2
    1425 022014 000302                  	SWAB R2
    1426 022016 010204                  	MOV R2,R4
    1427 022020 016503  021374          	MOV FRBF2(R5),R3
    1428 022024 010301                  	MOV R3,R1
    1429 022026 000301                  	SWAB R1
    1430 022030 110101                  	MOVB R1,R1
    1431 022032 042703  177741          	BIC #177741,R3
    1432 022036 006300                  	ASL R0
    1433 022040 006300                  	ASL R0
    1434 022042 006300                  	ASL R0
    1435 022044 042700  177417          	BIC #177417,R0
    1436 022050 006300                  	ASL R0
    1437 022052 066300  005472          	ADD MTRLHV(R3),R0
    1438 022056 020227  000040          	CMP R2,#32.
    1439 022062 101036                  	BHI FC
    1440                                
    1441 022064 160201                  	SUB R2,R1
    1442                                
    1443 022066 110265  021375          	MOVB R2,FRBF2+1(R5)
    1444 022072 010067  022132'         	MOV R0,TXTS+2
    1445                                
    1446 022076 010146                  	MOV R1,-(SP)
    1447                                
    1448 022100 010504                  	MOV R5,R4
    1449 022102 062704  064020          	ADD #C_VADDR+24000,R4
    1450 022106 012703  000240          	MOV #C_SCRWID,R3
    1451 022112 010200                  	MOV R2,R0
    1452 022114 006300                  	ASL R0
    1453                                
    1454 022116 010046                  	MOV R0,-(SP)
    1455                                
    1456 022120 016000  011662          	MOV WRC-2(R0),R0
    1457 022124 160304                  DWLS:	SUB R3,R4
    1458 022126 112001                  	MOVB (R0)+,R1
    1459 022130 016114  000000          TXTS:	MOV 0(R1),(R4)
    1460 022134 077205                  	SOB R2,DWLS
    1461                                
    1462 022136 012600                  	MOV (SP)+,R0
    1463 022140 062700  011224          	ADD #MFLRT,R0
    1464                                
    1465 022144 012601                  	MOV (SP)+,R1
    1466 022146 003441                  FB:	BLE FE
    1467                                
    1468 022150 160304                  	SUB R3,R4
    1469 022152 012014                  	MOV (R0)+,(R4)
    1470                                
    1471 022154 005301                  	DEC R1
    1472 022156 000773                  	BR FB
    1473                                
    1474 022160 012702  000040          FC:	MOV #32.,R2
    1475 022164 110265  021375          	MOVB R2,FRBF2+1(R5)
    1476 022170 006202                  	ASR R2
    1477 022172 010067  022236'         	MOV R0,TXTB+2
    1478 022176 116404  011263          	MOVB DIVS-33.(R4),R4
    1479 022202 006304                  	ASL R4
    1480 022204 006304                  	ASL R4
    1481 022206 010546                  	MOV R5,-(SP)
    1482 022210 062705  064020          	ADD #C_VADDR+24000,R5
    1483 022214 012703  000500          	MOV #C_SCRWIDD,R3
    1484 022220 005000                  	CLR R0
    1485 022222 160305                  DWLB:	SUB R3,R5
    1486 022224 010001                  	MOV R0,R1
    1487 022226 060400                  	ADD R4,R0
    1488 022230 000301                  	SWAB R1
    1489 022232 110101                  	MOVB R1,R1
    1490 022234 016101  000000          TXTB:	MOV 0(R1),R1
    1491 022240 010115                  	MOV R1,(R5)
    1492 022242 010165  000240          	MOV R1,C_SCRWID(R5)
    1493 022246 077213                  	SOB R2,DWLB
    1494 022250 012605                  	MOV (SP)+,R5
    1495 022252 162705  000002          FE:	SUB #2,R5
    1496 022256 002252                  	BGE FF
    1497                                	RET
       1 022260 000207                  	RETURN
    1498 022262 010346                  CORE:	MOV R3,-(SP)
    1499 022264 010446                  	MOV R4,-(SP)
    1500 022266 010546                  	MOV R5,-(SP)
    1501 022270 010302                  	MOV R3,R2
    1502 022272 100410                  	BMI S1
    1503 022274 012767  005202  022600' 	MOV #5202,DDII
    1504 022302 012700  000100          	MOV #64.,R0
    1505 022306 166700  023656'         	SUB DU0,R0
    1506 022312 000407                  	BR S2
    1507 022314 012767  005302  022600' S1:	MOV #5302,DDII
    1508 022322 016700  023656'         	MOV DU0,R0
    1509 022326 005200                  	INC R0
    1510 022330 005402                  	NEG R2
    1511 022332 010403                  S2:	MOV R4,R3
    1512 022334 100410                  	BMI S3
    1513 022336 012767  062702  022560' 	MOV #62702,DDJI
    1514 022344 012701  000100          	MOV #64.,R1
    1515 022350 166701  023660'         	SUB DV0,R1
    1516 022354 000407                  	BR S4
    1517 022356 012767  162702  022560' S3:	MOV #162702,DDJI
    1518 022364 016701  023660'         	MOV DV0,R1
    1519 022370 005201                  	INC R1
    1520 022372 005403                  	NEG R3
    1521                                S4:
    1522 022374 010004                  	MOV R0,R4
    1523 022376 162704  000100          	SUB #64.,R4
    1524 022402 010105                  	MOV R1,R5
    1525 022404 162705  000100          	SUB #64.,R5
    1526 022410 010246                  	MOV R2,-(SP)
    1527 022412 010546                  	MOV R5,-(SP)
    1528 022414 005005                  	CLR R5
    1529 022416 006202                  	ASR R2
    1530 022420 006202                  	ASR R2
    1531 022422 006202                  	ASR R2
    1532 022424 006202                  	ASR R2
    1533 022426 006202                  	ASR R2
    1534 022430 006202                  	ASR R2
    1535 022432 001410                  	BEQ 14$
    1536 022434 000403                  	BR 11$
    1537 022436 103001                  13$:	BCC 12$
    1538 022440 060205                  	ADD R2,R5
    1539 022442 006302                  12$:	ASL R2
    1540 022444 006001                  11$:	ROR R1
    1541 022446 001373                  	BNE 13$
    1542 022450 103001                  	BCC 14$
    1543 022452 060205                  	ADD R2,R5
    1544 022454 010501                  14$:	MOV R5,R1
    1545 022456 005005                  	CLR R5
    1546 022460 010346                  	MOV R3,-(SP)
    1547 022462 006203                  	ASR R3
    1548 022464 006203                  	ASR R3
    1549 022466 006203                  	ASR R3
    1550 022470 006203                  	ASR R3
    1551 022472 006203                  	ASR R3
    1552 022474 006203                  	ASR R3
    1553 022476 001410                  	BEQ 24$
    1554 022500 000403                  	BR 21$
    1555 022502 103001                  23$:	BCC 22$
    1556 022504 060305                  	ADD R3,R5
    1557 022506 006303                  22$:	ASL R3
    1558 022510 006000                  21$:	ROR R0
    1559 022512 001373                  	BNE 23$
    1560 022514 103001                  	BCC 24$
    1561 022516 060305                  	ADD R3,R5
    1562 022520 010500                  24$:	MOV R5,R0
    1563 022522 012603                  	MOV (SP)+,R3
    1564 022524 012605                  	MOV (SP)+,R5
    1565 022526 016702  023662'         	MOV DIJ0,R2
    1566 022532 151212                  WHLEL:	BISB (R2),(R2)
    1567 022534 001024                  	BNE HITW
    1568 022536 116762  001370' 000400  	MOVB FRCNTR,256.(R2)
    1569 022544 020001                  	CMP R0,R1
    1570 022546 103410                  	BLO WL1
    1571 022550 062705  000100          	ADD #64.,R5
    1572 022554 160100                  	SUB R1,R0
    1573 022556 011601                  	MOV (SP),R1
    1574 022560 062702  000020          DDJI:	ADD #16.,R2
    1575 022564 000261                  	SEC
    1576 022566 000761                  	BR WHLEL
    1577 022570 062704  000100          WL1:	ADD #64.,R4
    1578 022574 160001                  	SUB R0,R1
    1579 022576 010300                  	MOV R3,R0
    1580 022600 005202                  DDII:	INC R2
    1581 022602 000241                  	CLC
    1582 022604 000752                  	BR WHLEL
    1583                                HITW:
    1584 022606 103025                  	BCC WL2
    1585 022610 111202                  	MOVB (R2),R2
    1586 022612 010216                  	MOV R2,(SP)
    1587 022614 010302                  	MOV R3,R2
    1588 022616 010504                  	MOV R5,R4
    1589 022620 004767  013766'         	CALL SPDIV
    1590 022624 010246                  	MOV R2,-(SP)
    1591 022626 010204                  	MOV R2,R4
    1592 022630 016602  000010          	MOV 10(SP),R2
    1593 022634 100005                  	BPL 1$
    1594 022636 005402                  	NEG R2
    1595 022640 004767  013766'         	CALL SPDIV
    1596 022644 005402                  	NEG R2
    1597 022646 000402                  	BR 2$
    1598 022650 004767  013766'         1$:	CALL SPDIV
    1599 022654 066702  001372'         2$:	ADD PLX,R2
    1600 022660 000426                  	BR WL3
    1601                                WL2:
    1602 022662 011605                  	MOV (SP),R5
    1603 022664 111202                  	MOVB (R2),R2
    1604 022666 152702  000020          	BISB #20,R2
    1605 022672 010216                  	MOV R2,(SP)
    1606 022674 010502                  	MOV R5,R2
    1607 022676 004767  013766'         	CALL SPDIV
    1608 022702 010246                  	MOV R2,-(SP)
    1609 022704 010204                  	MOV R2,R4
    1610 022706 016602  000006          	MOV 6(SP),R2
    1611 022712 100005                  	BPL 1$
    1612 022714 005402                  	NEG R2
    1613 022716 004767  013766'         	CALL SPDIV
    1614 022722 005402                  	NEG R2
    1615 022724 000402                  	BR 2$
    1616 022726 004767  013766'         1$:	CALL SPDIV
    1617 022732 066702  001374'         2$:	ADD PLY,R2
    1618 022736 012601                  WL3:	MOV (SP)+,R1
    1619 022740 006201                  	ASR R1
    1620 022742 006201                  	ASR R1
    1621 022744 006201                  	ASR R1
    1622 022746 000301                  	SWAB R1
    1623 022750 105001                  	CLRB R1
    1624 022752 150201                  	BISB R2,R1
    1625 022754 012600                  	MOV (SP)+,R0
    1626 022756 012605                  	MOV (SP)+,R5
    1627 022760 012604                  	MOV (SP)+,R4
    1628 022762 012603                  	MOV (SP)+,R3
    1629                                	RET
       1 022764 000207                  	RETURN
    1630 022766 012705  023656          RENDR:	MOV #DU0,R5
    1631 022772 016700  001372'         	MOV PLX,R0
    1632 022776 010015                  	MOV R0,(R5)
    1633 023000 042725  177700          	BIC #177700,(R5)+
    1634 023004 016701  001374'         	MOV PLY,R1
    1635 023010 010115                  	MOV R1,(R5)
    1636 023012 042725  177700          	BIC #177700,(R5)+
    1637 023016 042701  000077          	BIC #77,R1
    1638 023022 006200                  	ASR R0
    1639 023024 006200                  	ASR R0
    1640 023026 006200                  	ASR R0
    1641 023030 006200                  	ASR R0
    1642 023032 060100                  	ADD R1,R0
    1643 023034 006200                  	ASR R0
    1644 023036 006200                  	ASR R0
    1645 023040 062700  020172          	ADD #MAP,R0
    1646 023044 010025                  	MOV R0,(R5)+
    1647 023046 016700  001376'         	MOV PLA,R0
    1648 023052 004767  013532'         	CALL GCOS
    1649 023056 010146                  	MOV R1,-(SP)
    1650 023060 010102                  	MOV R1,R2
    1651 023062 005402                  	NEG R2
    1652 023064 016700  001376'         	MOV PLA,R0
    1653 023070 004767  013564'         	CALL GSIN
    1654 023074 160116                  	SUB R1,(SP)
    1655 023076 010146                  	MOV R1,-(SP)
    1656 023100 160216                  	SUB R2,(SP)
    1657 023102 006201                  	ASR R1
    1658 023104 006201                  	ASR R1
    1659 023106 010125                  	MOV R1,(R5)+
    1660 023110 006201                  	ASR R1
    1661 023112 010125                  	MOV R1,(R5)+
    1662 023114 006201                  	ASR R1
    1663 023116 010125                  	MOV R1,(R5)+
    1664 023120 006201                  	ASR R1
    1665 023122 010125                  	MOV R1,(R5)+
    1666 023124 006202                  	ASR R2
    1667 023126 006202                  	ASR R2
    1668 023130 010225                  	MOV R2,(R5)+
    1669 023132 006202                  	ASR R2
    1670 023134 010225                  	MOV R2,(R5)+
    1671 023136 006202                  	ASR R2
    1672 023140 010225                  	MOV R2,(R5)+
    1673 023142 006202                  	ASR R2
    1674 023144 010225                  	MOV R2,(R5)+
    1675 023146 011604                  	MOV (SP),R4
    1676 023150 016603  000002          	MOV 2(SP),R3
    1677 023154 012705  000160          	MOV #128.-16.,R5
    1678 023160 004767  022262'         	CALL CORE
    1679 023164 110065  021414          	MOVB R0,FRBF2+16.(R5)
    1680 023170 010165  021212          	MOV R1,FRBF1+16.(R5)
    1681 023174 066703  023664'         LP0:	ADD DDA0,R3
    1682 023200 066704  023674'         	ADD DDB0,R4
    1683 023204 004767  022262'         	CALL CORE
    1684 023210 110065  021374          	MOVB R0,FRBF2(R5)
    1685 023214 010165  021172          	MOV R1,FRBF1(R5)
    1686 023220 120065  021414          	CMPB R0,FRBF2+16.(R5)
    1687 023224 001013                  	BNE NS0
    1688 023226 110065  021404          	MOVB R0,FRBF2+8.(R5)
    1689 023232 066501  021212          	ADD FRBF1+16.(R5),R1
    1690 023236 006001                  	ROR R1
    1691 023240 010165  021202          	MOV R1,FRBF1+8.(R5)
    1692 023244 162705  000020          	SUB #16.,R5
    1693 023250 002351                  	BGE LP0
    1694 023252 000421                  	BR EX0
    1695 023254 166703  023666'         NS0:	SUB DDA1,R3
    1696 023260 166704  023676'         	SUB DDB1,R4
    1697 023264 004767  022262'         	CALL CORE
    1698 023270 110065  021404          	MOVB R0,FRBF2+8.(R5)
    1699 023274 010165  021202          	MOV R1,FRBF1+8.(R5)
    1700 023300 066703  023666'         	ADD DDA1,R3
    1701 023304 066704  023676'         	ADD DDB1,R4
    1702 023310 162705  000020          	SUB #16.,R5
    1703 023314 002327                  	BGE LP0
    1704                                EX0:
    1705 023316 012604                  	MOV (SP)+,R4
    1706 023320 012603                  	MOV (SP)+,R3
    1707 023322 012705  000170          	MOV #128.-8.,R5
    1708 023326 066703  023666'         RLP:	ADD DDA1,R3
    1709 023332 066704  023676'         	ADD DDB1,R4
    1710 023336 116500  021374          	MOVB FRBF2(R5),R0
    1711 023342 016501  021172          	MOV FRBF1(R5),R1
    1712 023346 120065  021404          	CMPB R0,FRBF2+8.(R5)
    1713 023352 001034                  	BNE NSM
    1714 023354 062705  021374          	ADD #FRBF2,R5
    1715 023360 110015                  	MOVB R0,(R5)
    1716 023362 110065  000002          	MOVB R0,2(R5)
    1717 023366 110065  000004          	MOVB R0,4(R5)
    1718 023372 110065  000006          	MOVB R0,6(R5)
    1719 023376 010102                  	MOV R1,R2
    1720 023400 162705  000172          	SUB #130.-8.,R5
    1721 023404 011501                  	MOV (R5),R1
    1722 023406 010100                  	MOV R1,R0
    1723 023410 060201                  	ADD R2,R1
    1724 023412 006001                  	ROR R1
    1725 023414 060100                  	ADD R1,R0
    1726 023416 006000                  	ROR R0
    1727 023420 010045                  	MOV R0,-(R5)
    1728 023422 010145                  	MOV R1,-(R5)
    1729 023424 060201                  	ADD R2,R1
    1730 023426 006001                  	ROR R1
    1731 023430 010145                  	MOV R1,-(R5)
    1732 023432 010245                  	MOV R2,-(R5)
    1733 023434 162705  021202          	SUB #FRBF1+8.,R5
    1734 023440 002332                  	BGE RLP
    1735                                	RET
       1 023442 000207                  	RETURN
    1736                                NSM:
    1737 023444 010346                  	MOV R3,-(SP)
    1738 023446 010446                  	MOV R4,-(SP)
    1739 023450 166703  023670'         	SUB DDA2,R3
    1740 023454 166704  023700'         	SUB DDB2,R4
    1741 023460 004767  022262'         	CALL CORE
    1742 023464 110065  021400          	MOVB R0,FRBF2+4(R5)
    1743 023470 010165  021176          	MOV R1,FRBF1+4(R5)
    1744 023474 120065  021404          	CMPB R0,FRBF2+8.(R5)
    1745 023500 001011                  	BNE NT1
    1746 023502 110065  021402          	MOVB R0,FRBF2+4+2(R5)
    1747 023506 016502  021202          	MOV FRBF1+8.(R5),R2
    1748 023512 060102                  	ADD R1,R2
    1749 023514 006002                  	ROR R2
    1750 023516 010265  021200          	MOV R2,FRBF1+4+2(R5)
    1751 023522 000416                  	BR NT2
    1752 023524 166703  023672'         NT1:	SUB DDA4,R3
    1753 023530 166704  023702'         	SUB DDB4,R4
    1754 023534 004767  022262'         	CALL CORE
    1755 023540 110065  021402          	MOVB R0,FRBF2+6(R5)
    1756 023544 010165  021200          	MOV R1,FRBF1+6(R5)
    1757 023550 116500  021400          	MOVB FRBF2+4(R5),R0
    1758 023554 016501  021176          	MOV FRBF1+4(R5),R1
    1759 023560 120065  021374          NT2:	CMPB R0,FRBF2(R5)
    1760 023564 001011                  	BNE NT3
    1761 023566 110065  021376          	MOVB R0,FRBF2+2(R5)
    1762 023572 010102                  	MOV R1,R2
    1763 023574 066502  021172          	ADD FRBF1(R5),R2
    1764 023600 006002                  	ROR R2
    1765 023602 010265  021174          	MOV R2,FRBF1+2(R5)
    1766 023606 000415                  	BR NT4
    1767 023610 011604                  NT3:	MOV (SP),R4
    1768 023612 016603  000002          	MOV 2(SP),R3
    1769 023616 166703  023672'         	SUB DDA4,R3
    1770 023622 166704  023702'         	SUB DDB4,R4
    1771 023626 004767  022262'         	CALL CORE
    1772 023632 110065  021376          	MOVB R0,FRBF2+2(R5)
    1773 023636 010165  021174          	MOV R1,FRBF1+2(R5)
    1774 023642 012604                  NT4:	MOV (SP)+,R4
    1775 023644 012603                  	MOV (SP)+,R3
    1776 023646 162705  000010          	SUB #8.,R5
    1777 023652 002225                  	BGE RLP
    1778                                	RET
       1 023654 000207                  	RETURN
    1779 023656 000000                  DU0:	.WORD 0
    1780 023660 000000                  DV0:	.WORD 0
    1781 023662 000000                  DIJ0:	.WORD 0
    1782 023664 000000                  DDA0:	.WORD 0
    1783 023666 000000                  DDA1:	.WORD 0
    1784 023670 000000                  DDA2:	.WORD 0
    1785 023672 000000                  DDA4:	.WORD 0
    1786 023674 000000                  DDB0:	.WORD 0
    1787 023676 000000                  DDB1:	.WORD 0
    1788 023700 000000                  DDB2:	.WORD 0
    1789 023702 000000                  DDB4:	.WORD 0
    1790 023704 000000                  DDX:	.WORD 0
    1791 023706 000000                  DDY:	.WORD 0
    1792                                
    1793 023710 000000                  WMS:	.WORD 0
    1794 023712 016703  023710'         CLMM:	MOV WMS,R3
    1795 023716 006300                  	ASL R0
    1796 023720 103405                  0$:	BCS 1$
    1797 023722 001433                  	BEQ 2$
    1798 023724 062703  000500          4$:	ADD #C_SCRWID+C_SCRWID,R3
    1799 023730 006300                  	ASL R0
    1800 023732 000772                  	BR 0$
    1801 023734 010102                  1$:	MOV R1,R2
    1802 023736 010304                  	MOV R3,R4
    1803 023740 006302                  	ASL R2
    1804 023742 103405                  5$:	BCS 3$
    1805 023744 001767                  	BEQ 4$
    1806 023746 062704  000010          	ADD #8.,R4
    1807 023752 006302                  	ASL R2
    1808 023754 000772                  	BR 5$
    1809 023756 005064  000240          3$:	CLR C_SCRWID(R4)
    1810 023762 005024                  	CLR (R4)+
    1811 023764 005064  000240          	CLR C_SCRWID(R4)
    1812 023770 005024                  	CLR (R4)+
    1813 023772 005064  000240          	CLR C_SCRWID(R4)
    1814 023776 005024                  	CLR (R4)+
    1815 024000 005064  000240          	CLR C_SCRWID(R4)
    1816 024004 005024                  	CLR (R4)+
    1817 024006 006302                  	ASL R2
    1818 024010 000754                  	BR 5$
    1819                                2$:	RET
       1 024012 000207                  	RETURN
    1820 024014 012727  177777          MSKSIN:	MOV #-1.,(PC)+
    1821 024020 000000                  MHMSK:	.WORD 0
    1822 024022 012727  177777          	MOV #-1.,(PC)+
    1823 024026 000000                  MVMSK:	.WORD 0
    1824 024030 012727  177777          	MOV #-1.,(PC)+
    1825 024034 000000                  XHMSK:	.WORD 0
    1826 024036 012727  177777          	MOV #-1.,(PC)+
    1827 024042 000000                  XVMSK:	.WORD 0
    1828                                	RET
       1 024044 000207                  	RETURN
    1829 024046 136727  001370' 000002  MNPRC:	BITB FRCNTR,#2
    1830 024054 001410                  	BEQ 1$
    1831 024056 012767  110020  023710' 	MOV #C_MADDR,WMS
    1832 024064 016700  024026'         	MOV MVMSK,R0
    1833 024070 016701  024020'         	MOV MHMSK,R1
    1834 024074 000407                  	BR 2$
    1835 024076 012767  122260  023710' 1$:	MOV #C_XADDR,WMS
    1836 024104 016700  024042'         	MOV XVMSK,R0
    1837 024110 016701  024034'         	MOV XHMSK,R1
    1838 024114 004767  023712'         2$:     CALL CLMM
    1839 024120 005027                  	CLR (PC)+
    1840 024122 000000                  HMSK:	.WORD 0
    1841 024124 005027                  	CLR (PC)+
    1842 024126 000000                  VMSK:	.WORD 0
    1843 024130 004767  024224'         	CALL CLCD
    1844 024134 004767  024440'         	CALL SORT
    1845 024140 004767  024632'         	CALL CLDP
    1846 024144 136727  001370' 000002  	BITB FRCNTR,#2
    1847 024152 001411                  	BEQ 1$
    1848 024154 016767  024126' 024026' 	MOV VMSK,MVMSK
    1849 024162 016767  024122' 024020' 	MOV HMSK,MHMSK
    1850 024170 012700  000000          	MOV #V_SC0,R0
    1851 024174 000410                  	BR 2$
    1852 024176 016767  024126' 024042' 1$:	MOV VMSK,XVMSK
    1853 024204 016767  024122' 024034' 	MOV HMSK,XHMSK
    1854 024212 012700  000012          	MOV #V_SC2,R0
    1855 024216 004767  001242'         2$:	CALL SCH2
    1856                                	RET
       1 024222 000207                  	RETURN
    1857 024224 016700  001404'         CLCD:   MOV SPLA,R0
    1858 024230 004767  013532'         	CALL GCOS
    1859 024234 000301                  	SWAB R1
    1860 024236 110101                  	MOVB R1,R1
    1861 024240 010127                  	MOV R1,(PC)+
    1862 024242 000000                  XCOS:	.WORD 0
    1863 024244 016700  001404'         	MOV SPLA,R0
    1864 024250 004767  013564'         	CALL GSIN
    1865 024254 000301                  	SWAB R1
    1866 024256 110101                  	MOVB R1,R1
    1867 024260 010127                  	MOV R1,(PC)+
    1868 024262 000000                  XSIN:	.WORD 0
    1869                                
    1870 024264 005067  024534'         	CLR SORTN
    1871                                
    1872 024270 012705  031254          	MOV #SMNBF,R5
    1873                                
    1874 024274 105715                  1$:	TSTB (R5)
    1875 024276 001452                  	BEQ 2$
    1876 024300 005000                  	CLR R0
    1877 024302 156500  000003          	BISB 3.(R5),R0
    1878 024306 126067  020572  001370' 	CMPB VIS(R0),FRCNTR
    1879 024314 001043                  	BNE 2$
    1880                                
    1881 024316 016500  000004          	MOV 4.(R5),R0
    1882 024322 166700  001400'         	SUB SPLX,R0
    1883 024326 006200                  	ASR R0
    1884 024330 016701  024242'         	MOV XCOS,R1
    1885 024334 004767  013666'         	CALL SPMULS
    1886                                
    1887 024340 016500  000006          	MOV 6.(R5),R0
    1888 024344 166700  001402'         	SUB SPLY,R0
    1889 024350 006200                  	ASR R0
    1890 024352 016701  024262'         	MOV XSIN,R1
    1891 024356 010204                  	MOV R2,R4
    1892 024360 004767  013666'         	CALL SPMULS
    1893 024364 060402                  	ADD R4,R2
    1894                                
    1895 024366 006202                  	ASR R2
    1896 024370 006202                  	ASR R2
    1897 024372 006202                  	ASR R2
    1898 024374 006202                  	ASR R2
    1899 024376 006202                  	ASR R2
    1900                                
    1901 024400 010265  000012          	MOV R2,10.(R5)
    1902 024404 003407                  	BLE 2$
    1903                                
    1904 024406 016702  024534'         	MOV SORTN,R2
    1905 024412 006302                  	ASL R2
    1906 024414 010562  024536          	MOV R5,SORTI(R2)
    1907 024420 005267  024534'         	INC SORTN
    1908                                
    1909 024424 062705  000014          2$:	ADD #MNRS,R5
    1910 024430 022705  032024          	CMP #SMNBFE,R5
    1911 024434 001317                  	BNE 1$
    1912                                	RET
       1 024436 000207                  	RETURN
    1913 024440 012700  000001          SORT:	MOV #1,R0
    1914 024444 020067  024534'         2$:	CMP R0,SORTN
    1915 024450 002030                  	BGE 1$
    1916 024452 016701  024534'         	MOV SORTN,R1
    1917 024456 160001                  	SUB R0,R1
    1918 024460 005002                  	CLR R2
    1919 024462 020201                  4$:	CMP R2,R1
    1920 024464 002020                  	BGE 3$
    1921 024466 010203                  	MOV R2,R3
    1922 024470 006303                  	ASL R3
    1923 024472 016304  024536          	MOV SORTI(R3),R4
    1924 024476 016305  024540          	MOV SORTI+2(R3),R5
    1925 024502 026564  000012  000012  	CMP 10.(R5),10.(R4)
    1926 024510 002004                  	BGE 5$
    1927 024512 010463  024540          	MOV R4,SORTI+2(R3)
    1928 024516 010563  024536          	MOV R5,SORTI(R3)
    1929 024522 005202                  5$:	INC R2
    1930 024524 000756                  	BR 4$
    1931 024526 005200                  3$:	INC R0
    1932 024530 000745                  	BR 2$
    1933                                1$:	RET
       1 024532 000207                  	RETURN
    1934 024534 000000                  SORTN:	.WORD 0
    1935 024536                         SORTI:	.BLKW 30.
    1936 024632 016705  024534'         CLDP:	MOV SORTN,R5
    1937                                
    1938 024636 001462                  1$:	BEQ 6$
    1939 024640 005305                  	DEC R5
    1940 024642 010546                  	MOV R5,-(SP)
    1941 024644 006305                  	ASL R5
    1942 024646 016505  024536          	MOV SORTI(R5),R5
    1943                                
    1944 024652 016504  000012          	MOV 10.(R5),R4
    1945                                
    1946 024656 016500  000004          	MOV 4.(R5),R0
    1947 024662 166700  001400'         	SUB SPLX,R0
    1948 024666 006200                  	ASR R0
    1949 024670 016701  024262'         	MOV XSIN,R1
    1950 024674 004767  013666'         	CALL SPMULS
    1951                                
    1952 024700 016500  000006          	MOV 6.(R5),R0
    1953 024704 166700  001402'         	SUB SPLY,R0
    1954 024710 006200                  	ASR R0
    1955 024712 016701  024242'         	MOV XCOS,R1
    1956 024716 010203                  	MOV R2,R3
    1957 024720 004767  013666'         	CALL SPMULS
    1958                                
    1959 024724 160302                  	SUB R3,R2
    1960 024726 100005                  	BPL 3$
    1961 024730 005402                  	NEG R2
    1962 024732 004767  013766'         	CALL SPDIV
    1963 024736 005402                  	NEG R2
    1964 024740 000402                  	BR 4$
    1965 024742 004767  013766'         3$:	CALL SPDIV
    1966                                
    1967 024746 010200                  4$:	MOV R2,R0
    1968 024750 100001                  	BPL 5$
    1969 024752 005402                  	NEG R2
    1970 024754 020227  000100          5$:	CMP R2,#64.
    1971 024760 103007                  	BHIS 2$
    1972 024762 062700  000040          	ADD #32.,R0
    1973                                
    1974 024766 111503                  	MOVB (R5),R3
    1975 024770 006303                  	ASL R3
    1976 024772 016303  025004          	MOV DRTAB-2(R3),R3
    1977                                
    1978 024776 004713                  	CALL (R3)
    1979                                
    1980 025000 012605                  2$:	MOV (SP)+,R5
    1981 025002 000715                  	BR 1$
    1982                                
    1983                                6$:	RET
       1 025004 000207                  	RETURN
    1984 025006 025620                  DRTAB:	.WORD SPDRW
    1985 025010 025620                  	.WORD SPDRW
    1986 025012 025370                  	.WORD SPDRF
    1987 025014 025370                  	.WORD SPDRF
    1988 025016 025620                  	.WORD SPDRW
    1989 025020 025102  025103  025114  XFRAMS:	.WORD XFR1,XFR2,XFR3,XFR4,XFR5,XFR6
         025026 025125  025156  025207  
    1990 025034    001     001     001  XSCLRS:	.BYTE 1,1,1,1,1,1,1,1
         025037    001     001     001  
         025042    001     001          
    1991 025044    002     002     002  	.BYTE 2,2,2,2
         025047    002                  
    1992 025050    003     003     003  	.BYTE 3,3,3,3,3
         025053    003     003          
    1993 025055    004     004     004  	.BYTE 4,4,4,4,4
         025060    004     004          
    1994 025062    005     005     005  	.BYTE 5,5,5,5,5
         025065    005     005          
    1995 025067    006     006     006  	.BYTE 6,6,6,6,6
         025072    006     006          
    1996 025074    001     003     003  XSIZES:	.BYTE 1,3,3,5,5,7
         025077    005     005     007  
    1997 025102    377                  XFR1:	.BYTE 377
    1998 025103    000     377     000  XFR2:	.BYTE 0,377,0
    1999 025106    377     377     377  	.BYTE 377,377,377
    2000 025111    000     377     000  	.BYTE 0,377,0
    2001 025114    377     377     377  XFR3:	.BYTE 377,377,377
    2002 025117    377     377     377  	.BYTE 377,377,377
    2003 025122    377     377     377  	.BYTE 377,377,377
    2004 025125    000     000     377  XFR4:	.BYTE 0,0,377,0,0
         025130    000     000          
    2005 025132    000     377     377  	.BYTE 0,377,377,377,0
         025135    377     000          
    2006 025137    377     377     377  	.BYTE 377,377,377,377,377
         025142    377     377          
    2007 025144    000     377     377  	.BYTE 0,377,377,377,0
         025147    377     000          
    2008 025151    000     000     377  	.BYTE 0,0,377,0,0
         025154    000     000          
    2009 025156    000     377     377  XFR5:	.BYTE 0,377,377,377,0
         025161    377     000          
    2010 025163    377     377     377  	.BYTE 377,377,377,377,377
         025166    377     377          
    2011 025170    377     377     377  	.BYTE 377,377,377,377,377
         025173    377     377          
    2012 025175    377     377     377  	.BYTE 377,377,377,377,377
         025200    377     377          
    2013 025202    000     377     377  	.BYTE 0,377,377,377,0
         025205    377     000          
    2014 025207    000     000     377  XFR6:	.BYTE 0,0,377,377,377,0,0
         025212    377     377     000  
         025215    000                  
    2015 025216    000     377     377  	.BYTE 0,377,377,377,377,377,0
         025221    377     377     377  
         025224    000                  
    2016 025225    377     377     377  	.BYTE 377,377,377,377,377,377,377
         025230    377     377     377  
         025233    377                  
    2017 025234    377     377     377  	.BYTE 377,377,377,377,377,377,377
         025237    377     377     377  
         025242    377                  
    2018 025243    377     377     377  	.BYTE 377,377,377,377,377,377,377
         025246    377     377     377  
         025251    377                  
    2019 025252    000     377     377  	.BYTE 0,377,377,377,377,377,0
         025255    377     377     377  
         025260    000                  
    2020 025261    000     000     377  	.BYTE 0,0,377,377,377,0,0
         025264    377     377     000  
         025267    000                  
    2021                                	.EVEN
    2022 025270 026130  026140  026160  SCTB:	.WORD SCL1,SCL2,SCL3,SCL4,SCL5,SCL6,SCL5,SCL6
         025276 026210  026250  026312  
         025304 026250  026312          
    2023 025310 026250  026312  026250  	.WORD SCL5,SCL6,SCL5,SCL6,SCL5,SCL6,SCL5,SCL6
         025316 026312  026250  026312  
         025324 026250  026312          
    2024 025330 026250  026312  026250  	.WORD SCL5,SCL6,SCL5,SCL6,SCL5,SCL6,SCL5,SCL6
         025336 026312  026250  026312  
         025344 026250  026312          
    2025 025350 026250  026312  026250  	.WORD SCL5,SCL6,SCL5,SCL6,SCL5,SCL6,SCL5,SCL6
         025356 026312  026250  026312  
         025364 026250  026312          
    2026 025370 010546                  SPDRF:	MOV R5,-(SP)
    2027 025372 016504  000012          	MOV 10.(R5),R4
    2028 025376 004767  013762'         	CALL SPDVX
    2029 025402 006202                  	ASR R2
    2030 025404 006202                  	ASR R2
    2031 025406 006202                  	ASR R2
    2032 025410 010246                  	MOV R2,-(SP)
    2033 025412 006202                  	ASR R2
    2034 025414 001476                  	BEQ XR1
    2035 025416 020227  000040          	CMP R2,#32.
    2036 025422 101073                  	BHI XR1
    2037 025424 010203                  	MOV R2,R3
    2038 025426 006203                  	ASR R3
    2039 025430 116202  025033          	MOVB XSCLRS-1(R2),R2
    2040 025434 010205                  	MOV R2,R5
    2041 025436 006305                  	ASL R5
    2042 025440 016504  025016          	MOV XFRAMS-2(R5),R4
    2043 025444 116202  025073          	MOVB XSIZES-1(R2),R2
    2044 025450 010205                  	MOV R2,R5
    2045 025452 006205                  	ASR R5
    2046 025454 160500                  	SUB R5,R0
    2047 025456 010201                  	MOV R2,R1
    2048 025460 160503                  	SUB R5,R3
    2049 025462 010205                  	MOV R2,R5
    2050 025464 060305                  	ADD R3,R5
    2051 025466 016527  006563          	MOV DRMSKV-1(R5),(PC)+
    2052 025472 000000                  VTMP:	.WORD 0
    2053 025474 070327  000240          	MUL #C_SCRWID,R3
    2054 025500 120027  000100          XR2:	CMPB R0,#64.
    2055 025504 103040                  	BHIS XR4
    2056 025506 110005                  	MOVB R0,R5
    2057 025510 006305                  	ASL R5
    2058 025512 016505  021172          	MOV FRBF1(R5),R5
    2059 025516 105005                  	CLRB R5
    2060 025520 000305                  	SWAB R5
    2061 025522 020516                  	CMP R5,(SP)
    2062 025524 003030                  	BGT XR4
    2063 025526 110005                  	MOVB R0,R5
    2064 025530 006205                  	ASR R5
    2065 025532 056567  006524  024122' 	BIS DRMSKH(R5),HMSK
    2066 025540 056767  025472' 024126' 	BIS VTMP,VMSK
    2067 025546 010046                  	MOV R0,-(SP)
    2068 025550 010146                  	MOV R1,-(SP)
    2069 025552 010246                  	MOV R2,-(SP)
    2070 025554 006300                  	ASL R0
    2071 025556 060300                  	ADD R3,R0
    2072 025560 066700  023710'         	ADD WMS,R0
    2073 025564 112401                  XR3:	MOVB (R4)+,R1
    2074 025566 001401                  	BEQ XR5
    2075 025570 010110                  	MOV R1,(R0)
    2076 025572 062700  000240          XR5:	ADD #C_SCRWID,R0
    2077 025576 077206                  	SOB R2,XR3
    2078 025600 012602                  	MOV (SP)+,R2
    2079 025602 012601                  	MOV (SP)+,R1
    2080 025604 012600                  	MOV (SP)+,R0
    2081 025606 005200                  XR4:	INC R0
    2082 025610 077145                  	SOB R1,XR2
    2083 025612 005726                  XR1:	TST (SP)+
    2084 025614 012605                  	MOV (SP)+,R5
    2085                                	RET
       1 025616 000207                  	RETURN
    2086 025620 010546                  SPDRW:	MOV R5,-(SP)
    2087 025622 004767  030274'         	CALL DPROJ2
    2088 025626 016504  000012          	MOV 10.(R5),R4
    2089 025632 004767  013762'         	CALL SPDVX
    2090 025636 006202                  	ASR R2
    2091 025640 006202                  	ASR R2
    2092 025642 006202                  	ASR R2
    2093 025644 010246                  	MOV R2,-(SP)
    2094 025646 006202                  	ASR R2
    2095 025650 001524                  	BEQ SR1
    2096 025652 020227  000040          	CMP R2,#32.
    2097 025656 101121                  	BHI SR1
    2098 025660 111504                  	MOVB (R5),R4
    2099 025662 006304                  	ASL R4
    2100 025664 016404  005702          	MOV ANIMAS-2(R4),R4
    2101 025670 001407                  	BEQ TSCLX
    2102 025672 116501  000001          	MOVB 1.(R5),R1
    2103 025676 005201                  	INC R1
    2104 025700 006301                  	ASL R1
    2105 025702 060104                  	ADD R1,R4
    2106 025704 011427                  	MOV (R4),(PC)+
    2107 025706 000000                  ANIFR:	.WORD 0
    2108 025710 010204                  TSCLX:	MOV R2,R4
    2109 025712 006304                  	ASL R4
    2110 025714 016467  025266  026100' 	MOV SCTB-2.(R4),SR0+2
    2111 025722 016427  005542          	MOV SCLR-2.(R4),(PC)+
    2112 025726 000000                  TSCLR:	.WORD 0
    2113 025730 010204                  	MOV R2,R4
    2114 025732 006204                  	ASR R4
    2115 025734 160400                  	SUB R4,R0
    2116 025736 010201                  	MOV R2,R1
    2117 025740 005301                  	DEC R1
    2118 025742 010146                  	MOV R1,-(SP)
    2119 025744 111501                  	MOVB (R5),R1
    2120 025746 006301                  	ASL R1
    2121 025750 016101  005530          	MOV MTRLM-2.(R1),R1
    2122 025754 016727  025726'         	MOV TSCLR,(PC)+
    2123 025760 000000                  HSCLR:	.WORD 0
    2124 025762 006267  025760'         	ASR HSCLR
    2125 025766 120027  000100          SR2:	CMPB R0,#64.
    2126 025772 103044                  	BHIS SR4
    2127 025774 110005                  	MOVB R0,R5
    2128 025776 006305                  	ASL R5
    2129 026000 016505  021172          	MOV FRBF1(R5),R5
    2130 026004 105005                  	CLRB R5
    2131 026006 000305                  	SWAB R5
    2132 026010 020566  000002          	CMP R5,2(SP)
    2133 026014 003033                  	BGT SR4
    2134 026016 116704  025761'         	MOVB HSCLR+1,R4
    2135 026022 006304                  	ASL R4
    2136 026024 066704  025706'         	ADD ANIFR,R4
    2137 026030 011404                  	MOV (R4),R4
    2138 026032 001424                  	BEQ SR4
    2139 026034 110005                  	MOVB R0,R5
    2140 026036 006205                  	ASR R5
    2141 026040 056567  006524  024122' 	BIS DRMSKH(R5),HMSK
    2142 026046 010205                  	MOV R2,R5
    2143 026050 056567  006563  024126' 	BIS DRMSKV-1.(R5),VMSK
    2144 026056 006305                  	ASL R5
    2145 026060 016503  016030          	MOV PSCTAB-2.(R5),R3
    2146 026064 010246                  	MOV R2,-(SP)
    2147 026066 010005                  	MOV R0,R5
    2148 026070 006305                  	ASL R5
    2149 026072 066705  023710'         	ADD WMS,R5
    2150 026076 012707  000000          SR0:	MOV #0,PC
    2151 026102 012602                  SR5:	MOV (SP)+,R2
    2152 026104 005200                  SR4:	INC R0
    2153 026106 066767  025726' 025760' 	ADD TSCLR,HSCLR
    2154 026114 005316                  	DEC (SP)
    2155 026116 100323                  	BPL SR2
    2156 026120 005726                  	TST (SP)+
    2157 026122 005726                  SR1:	TST (SP)+
    2158 026124 012605                  	MOV (SP)+,R5
    2159                                	RET
       1 026126 000207                  	RETURN
    2160 026130 032304                  SCL1:	BIT (R3)+,R4
    2161 026132 001763                  	BEQ SR5
    2162 026134 010115                  	MOV R1,(R5)
    2163 026136 000761                  1$:	BR SR5
    2164 026140 032304                  SCL2:	BIT (R3)+,R4
    2165 026142 001401                  	BEQ 1$
    2166 026144 010115                  	MOV R1,(R5)
    2167 026146 032304                  1$:	BIT (R3)+,R4
    2168 026150 001402                  	BEQ 2$
    2169 026152 010165  000240          	MOV R1,C_SCRWID(R5)
    2170 026156 000751                  2$:	BR SR5
    2171 026160 032304                  SCL3:	BIT (R3)+,R4
    2172 026162 001401                  	BEQ 1$
    2173 026164 010115                  	MOV R1,(R5)
    2174 026166 032304                  1$:	BIT (R3)+,R4
    2175 026170 001402                  	BEQ 2$
    2176 026172 010165  000240          	MOV R1,C_SCRWID(R5)
    2177 026176 032304                  2$:	BIT (R3)+,R4
    2178 026200 001402                  	BEQ 3$
    2179 026202 010165  000500          	MOV R1,C_SCRWID+C_SCRWID(R5)
    2180 026206 000735                  3$:	BR SR5
    2181 026210 032304                  SCL4:	BIT (R3)+,R4
    2182 026212 001401                  	BEQ 1$
    2183 026214 010115                  	MOV R1,(R5)
    2184 026216 032304                  1$:	BIT (R3)+,R4
    2185 026220 001402                  	BEQ 2$
    2186 026222 010165  000240          	MOV R1,C_SCRWID(R5)
    2187 026226 032304                  2$:	BIT (R3)+,R4
    2188 026230 001402                  	BEQ 3$
    2189 026232 010165  000500          	MOV R1,C_SCRWID+C_SCRWID(R5)
    2190 026236 032304                  3$:	BIT (R3)+,R4
    2191 026240 001402                  	BEQ 4$
    2192 026242 010165  000740          	MOV R1,C_SCRWID+C_SCRWID+C_SCRWID(R5)
    2193 026246 000715                  4$:	BR SR5
    2194 026250 006202                  SCL5:	ASR R2
    2195 026252 032304                  	BIT (R3)+,R4
    2196 026254 001401                  	BEQ 2$
    2197 026256 010115                  	MOV R1,(R5)
    2198 026260 062705  000240          2$:	ADD #C_SCRWID,R5
    2199 026264 032304                  1$:	BIT (R3)+,R4
    2200 026266 001401                  	BEQ 3$
    2201 026270 010115                  	MOV R1,(R5)
    2202 026272 032304                  3$:	BIT (R3)+,R4
    2203 026274 001402                  	BEQ 4$
    2204 026276 010165  000240          	MOV R1,C_SCRWID(R5)
    2205 026302 062705  000500          4$:	ADD #C_SCRWID+C_SCRWID,R5
    2206 026306 077212                  	SOB R2,1$
    2207 026310 000674                  	BR SR5
    2208 026312 006202                  SCL6:	ASR R2
    2209 026314 032304                  1$:	BIT (R3)+,R4
    2210 026316 001401                  	BEQ 3$
    2211 026320 010115                  	MOV R1,(R5)
    2212 026322 032304                  3$:	BIT (R3)+,R4
    2213 026324 001402                  	BEQ 4$
    2214 026326 010165  000240          	MOV R1,C_SCRWID(R5)
    2215 026332 062705  000500          4$:	ADD #C_SCRWID+C_SCRWID,R5
    2216 026336 077212                  	SOB R2,1$
    2217 026340 000660                  	BR SR5
    2218                                
    2219 026342 027012  027136  027562  MNPRCS:	.WORD MHNTR,MHIT,MPROJ1,MPROJ2,MAMMO
         026350 027766  027772          
    2220 026354 012705  030504          CLMNBF:	MOV #MNBF,R5
    2221 026360 005025                  1$:	CLR (R5)+
    2222 026362 022705  031254          	CMP #MNBFE,R5
    2223 026366 001374                  	BNE 1$
    2224                                	RET
       1 026370 000207                  	RETURN
    2225 026372 010346                  SETIPS:	MOV R3,-(SP)
    2226 026374 004767  015126'         1$:	CALL FRN
    2227 026400 016700  015130'         	MOV RAN,R0
    2228 026404 042700  176000          	BIC #176000,R0
    2229 026410 004767  015126'         	CALL FRN
    2230 026414 016701  015130'         	MOV RAN,R1
    2231 026420 042701  176000          	BIC #176000,R1
    2232 026424 004767  015010'         	CALL CHECK
    2233 026430 001361                  	BNE 1$
    2234 026432 004767  015126'         	CALL FRN
    2235 026436 016702  015130'         	MOV RAN,R2
    2236 026442 042702  177000          	BIC #177000,R2
    2237 026446 010265  000010          	MOV R2,8.(R5)
    2238 026452 010065  000004          	MOV R0,4.(R5)
    2239 026456 010165  000006          	MOV R1,6.(R5)
    2240 026462 004767  014762'         	CALL CHECKP
    2241 026466 110265  000003          	MOVB R2,3.(R5)
    2242 026472 005003                  	CLR R3
    2243 026474 156703  001370'         	BISB FRCNTR,R3
    2244 026500 126203  020572          	CMPB VIS(R2),R3
    2245 026504 001733                  	BEQ 1$
    2246 026506 105303                  	DECB R3
    2247 026510 105303                  	DECB R3
    2248 026512 126203  020572          	CMPB VIS(R2),R3
    2249 026516 001726                  	BEQ 1$
    2250 026520 010046                  	MOV R0,-(SP)
    2251 026522 004767  015126'         	CALL FRN
    2252 026526 016700  015130'         	MOV RAN,R0
    2253 026532 042700  177760          	BIC #177760,R0
    2254 026536 120065  000002          	CMPB R0,2.(R5)
    2255 026542 103401                  	BLO 2$
    2256 026544 005000                  	CLR R0
    2257 026546 110065  000001          2$:	MOVB R0,1.(R5)
    2258 026552 012600                  	MOV (SP)+,R0
    2259 026554 012603                  	MOV (SP)+,R3
    2260                                	RET
       1 026556 000207                  	RETURN
    2261 026560 012705  030504          SETHNT:	MOV #MNBF,R5
    2262 026564 112715  000001          1$:	MOVB #1.,(R5)
    2263 026570 105065  000001          	CLRB 1.(R5)
    2264 026574 016700  005716'         	MOV HNTRS,R0
    2265 026600 110065  000002          	MOVB R0,2.(R5)
    2266 026604 004767  026372'         	CALL SETIPS
    2267 026610 112762  000377  020172  	MOVB #255.,MAP(R2)
    2268 026616 062705  000014          	ADD #MNRS,R5
    2269 026622 022705  030600          	CMP #MNBFS,R5
    2270 026626 001356                  	BNE 1$
    2271                                	RET
       1 026630 000207                  	RETURN
    2272 026632 012705  031064          SETAMM:	MOV #MNBFX,R5
    2273 026636 112715  000005          1$:	MOVB #5.,(R5)
    2274 026642 105065  000001          	CLRB 1.(R5)
    2275 026646 016700  005736'         	MOV AMMOS,R0
    2276 026652 110065  000002          	MOVB R0,2.(R5)
    2277 026656 004767  026372'         	CALL SETIPS
    2278 026662 112762  000377  020172  	MOVB #255.,MAP(R2)
    2279 026670 062705  000014          	ADD #MNRS,R5
    2280 026674 022705  031254          	CMP #MNBFE,R5
    2281 026700 001356                  	BNE 1$
    2282                                	RET
       1 026702 000207                  	RETURN
    2283 026704 012705  020172          CLTMRK:	MOV #MAP,R5
    2284 026710 012704  000400          	MOV #256.,R4
    2285 026714 121527  000377          1$:	CMPB (R5),#255.
    2286 026720 001001                  	BNE 2$
    2287 026722 105015                  	CLRB (R5)
    2288 026724 005205                  2$:	INC R5
    2289 026726 077406                  	SOB R4,1$
    2290                                	RET
       1 026730 000207                  	RETURN
    2291 026732 004767  024014'         MNSET:	CALL MSKSIN
    2292 026736 004767  026354'         	CALL CLMNBF
    2293 026742 004767  026560'         	CALL SETHNT
    2294 026746 004767  026632'         	CALL SETAMM
    2295 026752 004767  026704'         	CALL CLTMRK
    2296                                	RET
       1 026756 000207                  	RETURN
    2297 026760 036727  001214' 000003  NEXTFR:	BIT SKIP,#3.
    2298 026766 001010                  	BNE 1$
    2299 026770 105265  000001          	INCB 1.(R5)
    2300 026774 126565  000001  000002  	CMPB 1.(R5),2.(R5)
    2301 027002 001002                  	BNE 1$
    2302 027004 105065  000001          	CLRB 1.(R5)
    2303                                1$:	RET
       1 027010 000207                  	RETURN
    2304 027012 016500  000010          MHNTR:	MOV 8.(R5),R0
    2305 027016 004767  013616'         	CALL GSNCS
    2306 027022 006200                  	ASR R0
    2307 027024 006201                  	ASR R1
    2308 027026 066500  000004          	ADD 4.(R5),R0
    2309 027032 066501  000006          	ADD 6.(R5),R1
    2310 027036 004767  015010'         	CALL CHECK
    2311 027042 001011                  	BNE 1$
    2312 027044 010065  000004          	MOV R0,4.(R5)
    2313 027050 010165  000006          	MOV R1,6.(R5)
    2314 027054 004767  014762'         	CALL CHECKP
    2315 027060 110265  000003          	MOVB R2,3.(R5)
    2316 027064 000421                  	BR 2$
    2317 027066 004767  015126'         1$:	CALL FRN
    2318 027072 016702  015130'         	MOV RAN,R2
    2319 027076 042702  177000          	BIC #177000,R2
    2320 027102 010265  000010          	MOV R2,8.(R5)
    2321 027106 026727  001356' 000010  	CMP GSTATE,#GSHTWN
    2322 027114 001005                  	BNE 2$
    2323 027116 020527  030504          	CMP R5,#MNBF
    2324 027122 001002                  	BNE 2$
    2325 027124 004767  015610'         	CALL CORRA
    2326 027130 004767  026760'         2$:	CALL NEXTFR
    2327                                	RET
       1 027134 000207                  	RETURN
    2328 027136 004767  026760'         MHIT:	CALL NEXTFR
    2329 027142 001001                  	BNE 1$
    2330 027144 105015                  	CLRB (R5)
    2331                                1$:	RET
       1 027146 000207                  	RETURN
    2332 027150 005002                  HPCHK:	CLR R2
    2333 027152 026727  001356' 000001  	CMP GSTATE,#GSGAME
    2334 027160 001053                  	BNE 5$
    2335 027162 010046                  	MOV R0,-(SP)
    2336 027164 010146                  	MOV R1,-(SP)
    2337 027166 166700  001372'         	SUB PLX,R0
    2338 027172 100001                  	BPL 1$
    2339 027174 005400                  	NEG R0
    2340 027176 166701  001374'         1$:	SUB PLY,R1
    2341 027202 100001                  	BPL 2$
    2342 027204 005401                  	NEG R1
    2343 027206 020027  000023          2$:	CMP R0,#HITRAD
    2344 027212 101034                  	BHI 4$
    2345 027214 020127  000023          	CMP R1,#HITRAD
    2346 027220 101031                  	BHI 4$
    2347 027222 116700  001364'         	MOVB SCORE,R0
    2348 027226 105200                  	INCB R0
    2349 027230 120027  000031          	CMPB R0,#SCLIM
    2350 027234 103420                  	BLO 3$
    2351 027236 012767  000010  001356' 	MOV #GSHTWN,GSTATE
    2352 027244 010046                  	MOV R0,-(SP)
    2353 027246 010246                  	MOV R2,-(SP)
    2354 027250 010346                  	MOV R3,-(SP)
    2355 027252 010546                  	MOV R5,-(SP)
    2356 027254 052767  000020  001360' 	BIS #16.,BITFLD
    2357 027262 004767  015610'         	CALL CORRA
    2358 027266 012605                  	MOV (SP)+,R5
    2359 027270 012603                  	MOV (SP)+,R3
    2360 027272 012602                  	MOV (SP)+,R2
    2361 027274 012600                  	MOV (SP)+,R0
    2362 027276 110067  001364'         3$:	MOVB R0,SCORE
    2363 027302 005202                  	INC R2
    2364 027304 012601                  4$:	MOV (SP)+,R1
    2365 027306 012600                  	MOV (SP)+,R0
    2366                                5$:	RET
       1 027310 000207                  	RETURN
    2367 027312 012705  030504          DALL:	MOV #MNBF,R5
    2368 027316 105715                  1$:	TSTB (R5)
    2369 027320 001414                  	BEQ 2$
    2370 027322 112715  000002          	MOVB #2.,(R5)
    2371 027326 105065  000001          	CLRB 1.(R5)
    2372 027332 016700  005726'         	MOV HITS,R0
    2373 027336 110065  000002          	MOVB R0,2.(R5)
    2374 027342 012700  000002          	MOV #H_SND,R0
    2375 027346 004767  001242'         	CALL SCH2
    2376 027352 062705  000014          2$:	ADD #MNRS,R5
    2377 027356 022705  030600          	CMP #MNBFS,R5
    2378 027362 001355                  	BNE 1$
    2379                                	RET
       1 027364 000207                  	RETURN
    2380 027366 005002                  PHCHK:	CLR R2
    2381 027370 026727  001356' 000001  	CMP GSTATE,#GSGAME
    2382 027376 001070                  	BNE 7$
    2383 027400 010046                  	MOV R0,-(SP)
    2384 027402 010146                  	MOV R1,-(SP)
    2385 027404 010546                  	MOV R5,-(SP)
    2386 027406 012705  030504          	MOV #MNBF,R5
    2387 027412 105715                  1$:	TSTB (R5)
    2388 027414 001451                  	BEQ 2$
    2389 027416 016600  000004          	MOV 4(SP),R0
    2390 027422 016601  000002          	MOV 2(SP),R1
    2391 027426 166500  000004          	SUB 4(R5),R0
    2392 027432 100001                  	BPL 3$
    2393 027434 005400                  	NEG R0
    2394 027436 166501  000006          3$:	SUB 6(R5),R1
    2395 027442 100001                  	BPL 4$
    2396 027444 005401                  	NEG R1
    2397 027446 020027  000023          4$:	CMP R0,#HITRAD
    2398 027452 101032                  	BHI 2$
    2399 027454 020127  000023          	CMP R1,#HITRAD
    2400 027460 101027                  	BHI 2$
    2401 027462 116700  001365'         	MOVB SCORE+1,R0
    2402 027466 105200                  	INCB R0
    2403 027470 120027  000031          	CMPB R0,#SCLIM
    2404 027474 103415                  	BLO 5$
    2405 027476 012767  000004  001356' 	MOV #GSPLWN,GSTATE
    2406 027504 010046                  	MOV R0,-(SP)
    2407 027506 010346                  	MOV R3,-(SP)
    2408 027510 052767  000040  001360' 	BIS #32.,BITFLD
    2409 027516 004767  027312'         	CALL DALL
    2410 027522 012603                  	MOV (SP)+,R3
    2411 027524 012600                  	MOV (SP)+,R0
    2412 027526 005005                  	CLR R5
    2413 027530 110067  001365'         5$:	MOVB R0,SCORE+1
    2414 027534 010502                  	MOV R5,R2
    2415 027536 000405                  	BR 6$
    2416 027540 062705  000014          2$:	ADD #MNRS,R5
    2417 027544 022705  030600          	CMP #MNBFS,R5
    2418 027550 001320                  	BNE 1$
    2419 027552 012605                  6$:	MOV (SP)+,R5
    2420 027554 012601                  	MOV (SP)+,R1
    2421 027556 012600                  	MOV (SP)+,R0
    2422                                7$:	RET
       1 027560 000207                  	RETURN
    2423 027562 016500  000010          MPROJ1:	MOV 8.(R5),R0
    2424 027566 004767  013624'         	CALL GSNCS2
    2425 027572 066500  000004          	ADD 4.(R5),R0
    2426 027576 066501  000006          	ADD 6.(R5),R1
    2427 027602 121527  000004          	CMPB (R5),#4.
    2428 027606 001013                  	BNE 4$
    2429 027610 004767  027150'         	CALL HPCHK
    2430 027614 005702                  	TST R2
    2431 027616 001427                  	BEQ 5$
    2432 027620 016500  000010          	MOV 8.(R5),R0
    2433 027624 004767  013616'         	CALL GSNCS
    2434 027630 004767  003450'         	CALL DUP2
    2435 027634 000434                  	BR 1$
    2436 027636 004767  027366'         4$:	CALL PHCHK
    2437 027642 005702                  	TST R2
    2438 027644 001414                  	BEQ 5$
    2439 027646 016265  000004  000004  	MOV 4.(R2),4.(R5)
    2440 027654 016265  000006  000006  	MOV 6.(R2),6.(R5)
    2441 027662 010546                  	MOV R5,-(SP)
    2442 027664 010205                  	MOV R2,R5
    2443 027666 004767  026372'         	CALL SETIPS
    2444 027672 012605                  	MOV (SP)+,R5
    2445 027674 000414                  	BR 1$
    2446 027676 004767  015010'         5$:	CALL CHECK
    2447 027702 001011                  	BNE 1$
    2448 027704 010065  000004          	MOV R0,4.(R5)
    2449 027710 010165  000006          	MOV R1,6.(R5)
    2450 027714 004767  014762'         	CALL CHECKP
    2451 027720 110265  000003          	MOVB R2,3.(R5)
    2452 027724 000415                  	BR 2$
    2453 027726 112715  000002          1$:	MOVB #2.,(R5)
    2454 027732 105065  000001          	CLRB 1.(R5)
    2455 027736 016700  005726'         	MOV HITS,R0
    2456 027742 110065  000002          	MOVB R0,2.(R5)
    2457 027746 012700  000002          	MOV #H_SND,R0
    2458 027752 004767  001242'         	CALL SCH2
    2459 027756 000402                  	BR 3$
    2460 027760 004767  026760'         2$:	CALL NEXTFR
    2461                                3$:	RET
       1 027764 000207                  	RETURN
    2462 027766 000167  027562'         MPROJ2:	JMP MPROJ1
    2463 027772 126727  001362' 000036  MAMMO:	CMPB AMMO,#30.
    2464 030000 103043                  	BHIS 3$
    2465 030002 016700  001372'         	MOV PLX,R0
    2466 030006 016701  001374'         	MOV PLY,R1
    2467 030012 166500  000004          	SUB 4.(R5),R0
    2468 030016 100001                  	BPL 1$
    2469 030020 005400                  	NEG R0
    2470 030022 166501  000006          1$:	SUB 6.(R5),R1
    2471 030026 100001                  	BPL 2$
    2472 030030 005401                  	NEG R1
    2473 030032 020027  000023          2$:	CMP R0,#HITRAD
    2474 030036 101024                  	BHI 3$
    2475 030040 020127  000023          	CMP R1,#HITRAD
    2476 030044 101021                  	BHI 3$
    2477 030046 116700  001362'         	MOVB AMMO,R0
    2478 030052 062700  000005          	ADD #5.,R0
    2479 030056 020027  000036          	CMP R0,#30.
    2480 030062 101402                  	BLOS 4$
    2481 030064 012700  000036          	MOV #30.,R0
    2482 030070 110067  001362'         4$:	MOVB R0,AMMO
    2483 030074 004767  026372'         	CALL SETIPS
    2484 030100 012700  000003          	MOV #A_SND,R0
    2485 030104 004767  001242'         	CALL SCH2
    2486 030110 000167  026760'         3$:	JMP NEXTFR
    2487 030114 012705  030504          MNMOV:	MOV #MNBF,R5
    2488 030120 111500                  1$:	MOVB (R5),R0
    2489 030122 001403                  	BEQ 2$
    2490 030124 006300                  	ASL R0
    2491 030126 004770  026340          	CALL @MNPRCS-2(R0)
    2492 030132 062705  000014          2$:	ADD #MNRS,R5
    2493 030136 022705  031254          	CMP #MNBFE,R5
    2494 030142 001366                  	BNE 1$
    2495                                	RET
       1 030144 000207                  	RETURN
    2496 030146 026727  001356' 000010  DPROJ1:	CMP GSTATE,#GSHTWN
    2497 030154 001446                  	BEQ 3$
    2498 030156 105767  001362'         	TSTB AMMO
    2499 030162 001443                  	BEQ 3$
    2500 030164 105367  001362'         	DECB AMMO
    2501 030170 012705  030600          	MOV #MNBFS,R5
    2502 030174 105715                  1$:	TSTB (R5)
    2503 030176 001030                  	BNE 2$
    2504 030200 112715  000003          	MOVB #3.,(R5)
    2505 030204 105065  000001          	CLRB 1.(R5)
    2506 030210 016700  001372'         	MOV PLX,R0
    2507 030214 016701  001374'         	MOV PLY,R1
    2508 030220 010065  000004          	MOV R0,4.(R5)
    2509 030224 010165  000006          	MOV R1,6.(R5)
    2510 030230 016765  001376' 000010  	MOV PLA,8.(R5)
    2511 030236 004767  014762'         	CALL CHECKP
    2512 030242 110265  000003          	MOVB R2,3.(R5)
    2513 030246 012700  000004          	MOV #F_SND,R0
    2514 030252 004767  001242'         	CALL SCH2
    2515 030256 000405                  	BR 3$
    2516 030260 062705  000014          2$:	ADD #MNRS,R5
    2517 030264 022705  031064          	CMP #MNBFX,R5
    2518 030270 001341                  	BNE 1$
    2519                                3$:	RET
       1 030272 000207                  	RETURN
    2520 030274 122715  000001          DPROJ2:	CMPB #1.,(R5)
    2521 030300 001062                  	BNE 3$
    2522 030302 026727  001356' 000010  	CMP GSTATE,#GSHTWN
    2523 030310 001456                  	BEQ 3$
    2524 030312 004767  015126'         	CALL FRN
    2525 030316 026727  015130' 006654  	CMP RAN,#3500.
    2526 030324 101050                  	BHI 3$
    2527 030326 010046                  	MOV R0,-(SP)
    2528 030330 010146                  	MOV R1,-(SP)
    2529 030332 010246                  	MOV R2,-(SP)
    2530 030334 010446                  	MOV R4,-(SP)
    2531 030336 012704  030600          	MOV #MNBFS,R4
    2532 030342 105714                  1$:	TSTB (R4)
    2533 030344 001027                  	BNE 2$
    2534 030346 112714  000004          	MOVB #4.,(R4)
    2535 030352 105064  000001          	CLRB 1.(R4)
    2536 030356 016500  000004          	MOV 4.(R5),R0
    2537 030362 016501  000006          	MOV 6.(R5),R1
    2538 030366 010064  000004          	MOV R0,4.(R4)
    2539 030372 010164  000006          	MOV R1,6.(R4)
    2540 030376 004767  014762'         	CALL CHECKP
    2541 030402 110264  000003          	MOVB R2,3.(R4)
    2542 030406 004767  013130'         	CALL GETANG
    2543 030412 012700  000004          	MOV #F_SND,R0
    2544 030416 004767  001242'         	CALL SCH2
    2545 030422 000405                  	BR 4$
    2546 030424 062704  000014          2$:	ADD #MNRS,R4
    2547 030430 022704  031064          	CMP #MNBFX,R4
    2548 030434 001342                  	BNE 1$
    2549 030436 012604                  4$:	MOV (SP)+,R4
    2550 030440 012602                  	MOV (SP)+,R2
    2551 030442 012601                  	MOV (SP)+,R1
    2552 030444 012600                  	MOV (SP)+,R0
    2553                                3$:	RET
       1 030446 000207                  	RETURN
    2554 030450 012700  030504          MNSYNC:	MOV #MNBF,R0
    2555 030454 012701  031254          	MOV #SMNBF,R1
    2556 030460 012021                  1$:	MOV (R0)+,(R1)+
    2557 030462 012021                  	MOV (R0)+,(R1)+
    2558 030464 012021                  	MOV (R0)+,(R1)+
    2559 030466 012021                  	MOV (R0)+,(R1)+
    2560 030470 012021                  	MOV (R0)+,(R1)+
    2561 030472 012021                  	MOV (R0)+,(R1)+
    2562 030474 020027  031254          	CMP R0,#MNBFE
    2563 030500 001367                  	BNE 1$
    2564                                	RET
       1 030502 000207                  	RETURN
    2565 030504                         MNBF:	.BLKB 60.
    2566 030600                         MNBFS:	.BLKB 180.
    2567 031064                         MNBFX:	.BLKB 120.
    2568                                MNBFE:
    2569 031254                         SMNBF:	.BLKB 60.+180.+120.
    2570 032024 000240                  SMNBFE:	NOP
    2571                                
    2572 032026 012727  000005          GOTIT:	MOV #5,(PC)+
    2573 032032 000000                  MNUITM:	.WORD 0
    2574 032034 012727  177777          	MOV #-1,(PC)+
    2575 032040 000000                  OLDITM:	.WORD 0
    2576 032042 012767  000007  034612' 	MOV #F_PCHR,TXMDE
    2577 032050 004767  001330'         	CALL CLVRAM
    2578 032054 012700  000001          	MOV #V_SC1,R0
    2579 032060 004767  001242'         	CALL SCH2
    2580 032064 004767  033126'         	CALL PRTIT
    2581 032070 004767  033104'         	CALL PRVER
    2582 032074 012705  033166          	MOV #TX1,R5
    2583 032100 004767  032510'         	CALL DRTEXT
    2584 032104 004767  032466'         	CALL KEYRST
    2585 032110 004767  032750'         MNULP2:	CALL PRNUM
    2586 032114 004767  033016'         	CALL PRPAL
    2587 032120 004767  032660'         MNULP:	CALL DRMENU
    2588 032124 004767  015126'         	CALL FRN
    2589 032130 016701  032032'         	MOV MNUITM,R1
    2590 032134 005767  035132'         	TST KeyUp
    2591 032140 001411                  	BEQ 1$
    2592 032142 005067  035132'         	CLR KeyUp
    2593 032146 020127  000005          	CMP R1,#5
    2594 032152 001762                  	BEQ MNULP
    2595 032154 005201                  	INC R1
    2596 032156 010167  032032'         	MOV R1,MNUITM
    2597 032162 000756                  	BR MNULP
    2598 032164 005767  035130'         1$:	TST KeyDown
    2599 032170 001411                  	BEQ 2$
    2600 032172 005067  035130'         	CLR KeyDown
    2601 032176 020127  000001          	CMP R1,#1
    2602 032202 001746                  	BEQ MNULP
    2603 032204 005301                  	DEC R1
    2604 032206 010167  032032'         	MOV R1,MNUITM
    2605 032212 000742                  	BR MNULP
    2606 032214 005767  035120'         2$:	TST KeyEnter
    2607 032220 001737                  	BEQ MNULP
    2608 032222 005067  035120'         	CLR KeyEnter
    2609 032226 005301                  	DEC R1
    2610 032230 001447                  	BEQ 5$
    2611 032232 005301                  	DEC R1
    2612 032234 001474                  	BEQ 6$
    2613 032236 005301                  	DEC R1
    2614 032240 001413                  	BEQ 3$
    2615 032242 005301                  	DEC R1
    2616 032244 001427                  	BEQ 4$
    2617 032246 004767  001314'         	CALL CLWHLE
    2618 032252 012700  000000          	MOV #V_SC0,R0
    2619 032256 004767  001242'         	CALL SCH2
    2620 032262 004767  002572'         	CALL GO
    2621 032266 000657                  	BR GOTIT
    2622 032270 012705  033272          3$:	MOV #TX2,R5
    2623 032274 004767  032536'         	CALL DRINFO
    2624 032300 012705  033630          	MOV #TX3,R5
    2625 032304 004767  032536'         	CALL DRINFO
    2626 032310 012705  034140          	MOV #TX4,R5
    2627 032314 004767  032536'         	CALL DRINFO
    2628 032320 000167  032026'         	JMP GOTIT
    2629 032324 005267  004060'         4$:	INC AMAP
    2630 032330 026727  004060' 000005  	CMP AMAP,#5
    2631 032336 103664                  	BLO MNULP2
    2632 032340 005067  004060'         	CLR AMAP
    2633 032344 000167  032110'         	JMP MNULP2
    2634                                5$:
    2635 032350 012700  000006          	MOV #F_EXIT,R0
    2636 032354 004767  001242'         	CALL SCH2
    2637 032360 005737  035150          	TST @#PpuComm
    2638 032364 001375                  	BNE .-4
    2639 032366 016737  001054' 000100  	MOV OLDTMI,@#100
    2640 032374 016737  001062' 000102  	MOV OLDTMM,@#102
    2641 032402 004767  035366'         	CALL PPFREE
    2642 032406 105737  177564          	TSTB @#177564
    2643 032412 100375                  	BPL .-4
    2644 032414 012737  000014  177566  	MOV #14,@#177566
    2645 032422 104350                  	EMT 350
    2646 032424 000000                  	HALT
    2647 032426 005267  035154'         6$:	INC APAL
    2648 032432 026727  035154' 000004  	CMP APAL,#4
    2649 032440 103623                  	BLO MNULP2
    2650 032442 005067  035154'         	CLR APAL
    2651 032446 000167  032110'         	JMP MNULP2
    2652 032452 005067  035134'         ANYKEY:	CLR KeyAny
    2653 032456 016700  035134'         	MOV KeyAny,R0
    2654 032462 001775                  	BEQ .-4
    2655                                	RET
       1 032464 000207                  	RETURN
    2656 032466 005067  035134'         KEYRST:	CLR KeyAny
    2657 032472 005067  035120'         	CLR KeyEnter
    2658 032476 005067  035132'         	CLR KeyUp
    2659 032502 005067  035130'         	CLR KeyDown
    2660                                	RET
       1 032506 000207                  	RETURN
    2661 032510 010500                  DRTEXT:	MOV R5,R0
    2662 032512 004767  034772'         	CALL TXPS
    2663 032516 022525                  	CMP (R5)+,(R5)+
    2664 032520 010501                  	MOV R5,R1
    2665 032522 005721                  	TST (R1)+
    2666 032524 012505                  	MOV (R5)+,R5
    2667 032526 004767  034640'         1$:	CALL TXST
    2668 032532 077503                  	SOB R5,1$
    2669                                	RET
       1 032534 000207                  	RETURN
    2670 032536 004767  001330'         DRINFO:	CALL CLVRAM
    2671 032542 004767  032510'         	CALL DRTEXT
    2672 032546 004767  032452'         	CALL ANYKEY
    2673                                	RET
       1 032552 000207                  	RETURN
    2674 032554 012700  033166          INVSTR:	MOV #TX1,R0
    2675 032560 004767  034772'         	CALL TXPS
    2676 032564 162700  000002          	SUB #2,R0
    2677 032570 006305                  	ASL R5
    2678 032572 066500  032644          	ADD MNUADR-2(R5),R0
    2679 032576 010037  176640          	MOV R0,@#176640
    2680 032602 012704  000014          	MOV #14,R4
    2681 032606 012703  000022          2$:	MOV #22,R3
    2682 032612 005137  176642          1$:	COM @#176642
    2683 032616 005237  176640          	INC @#176640
    2684 032622 005137  176642          	COM @#176642
    2685 032626 005237  176640          	INC @#176640
    2686 032632 077311                  	SOB R3,1$
    2687 032634 062737  000054  176640  	ADD #C_SCRWIH-44,@#176640
    2688 032642 077417                  	SOB R4,2$
    2689                                	RET
       1 032644 000207                  	RETURN
    2690 032646 015460  012120  006560  MNUADR:	.WORD 7040.-80.,5280.-80.,3520.-80.,1760.-80.,-80.
         032654 003220  177660          
    2691 032660 026767  032040' 032032' DRMENU:	CMP OLDITM,MNUITM
    2692 032666 001411                  	BEQ 1$
    2693 032670 016705  032040'         	MOV OLDITM,R5
    2694 032674 100402                  	BMI 2$
    2695 032676 004767  032554'         	CALL INVSTR
    2696 032702 016705  032032'         2$:	MOV MNUITM,R5
    2697 032706 004767  032554'         	CALL INVSTR
    2698 032712 016767  032032' 032040' 1$:	MOV MNUITM,OLDITM
    2699                                	RET
       1 032720 000207                  	RETURN
    2700 032722 016705  032032'         BEFUPD:	MOV MNUITM,R5
    2701 032726 020527  000004          	CMP R5,#4
    2702 032732 001403                  	BEQ 1$
    2703 032734 020527  000002          	CMP R5,#2
    2704 032740 001002                  	BNE 2$
    2705 032742 004767  032554'         1$:	CALL INVSTR
    2706                                2$:	RET
       1 032746 000207                  	RETURN
    2707 032750 004767  032722'         PRNUM:	CALL BEFUPD
    2708 032754 012700  034226          	MOV #STRNP,R0
    2709 032760 004767  034772'         	CALL TXPS
    2710 032764 016701  004060'         	MOV AMAP,R1
    2711 032770 062701  000061          	ADD #61,R1
    2712 032774 110167  034232'         	MOVB R1,STRN
    2713 033000 012701  034232          	MOV #STRN,R1
    2714 033004 004767  034640'         	CALL TXST
    2715 033010 004767  032722'         	CALL BEFUPD
    2716                                	RET
       1 033014 000207                  	RETURN
    2717 033016 004767  032722'         PRPAL:	CALL BEFUPD
    2718 033022 012700  034234          	MOV #STRPL,R0
    2719 033026 004767  034772'         	CALL TXPS
    2720 033032 016701  035154'         	MOV APAL,R1
    2721 033036 006301                  	ASL R1
    2722 033040 016101  033074          	MOV STRPLO(R1),R1
    2723 033044 004767  034640'         	CALL TXST
    2724 033050 004767  032722'         	CALL BEFUPD
    2725 033054 012700  000014          	MOV #F_PAL,R0
    2726 033060 004767  001242'         	CALL SCH2
    2727 033064 005737  035150          	TST @#PpuComm
    2728 033070 001375                  	BNE .-4
    2729                                	RET
       1 033072 000207                  	RETURN
    2730 033074 034240  034244  034250  STRPLO:	.WORD STRPP1,STRPP2,STRPP3,STRPP4
         033102 034254                  
    2731 033104 012700  034260          PRVER:	MOV #STRVP,R0
    2732 033110 004767  034772'         	CALL TXPS
    2733 033114 012701  034264          	MOV #STRV,R1
    2734 033120 004767  034640'         	CALL TXST
    2735                                	RET
       1 033124 000207                  	RETURN
    2736 033126 012700  034304          PRTIT:	MOV #STRTP,R0
    2737 033132 004767  034772'         	CALL TXPS
    2738 033136 016746  034612'         	MOV TXMDE,-(SP)
    2739 033142 012767  000015  034612' 	MOV #F_PCHR2,TXMDE
    2740 033150 012701  034310          	MOV #STRT,R1
    2741 033154 004767  034640'         	CALL TXST
    2742 033160 012667  034612'         	MOV (SP)+,TXMDE
    2743                                	RET
       1 033164 000207                  	RETURN
    2744 033166 000010  000012  000005  TX1:	.WORD 8.,10.,5.
    2745 033174    123     124     101  	.ASCII"START ENGINE"<12><12><0>
         033177    122     124     040  
         033202    105     116     107  
         033205    111     116     105  
         033210    012     012     000  
    2746 033213    123     105     114  	.ASCII"SELECTED ARENA"<12><12><0>
         033216    105     103     124  
         033221    105     104     040  
         033224    101     122     105  
         033227    116     101     012  
         033232    012     000          
    2747 033234    111     116     106  	.ASCII"INFORMATION"<12><12><0>
         033237    117     122     115  
         033242    101     124     111  
         033245    117     116     012  
         033250    012     000          
    2748 033252    120     101     114  	.ASCII"PALETTE"<12><12><0>
         033255    105     124     124  
         033260    105     012     012  
         033263    000                  
    2749 033264    105     130     111  	.ASCII"EXIT"<0>
         033267    124     000          
    2750 033271    000                  	.EVEN
    2751 033272 000004  000002  000012  TX2:	.WORD 4.,2.,10.
    2752 033300    237     111     116  	.ASCII<237>"INFORMATION"<237><12><12><0>
         033303    106     117     122  
         033306    115     101     124  
         033311    111     117     116  
         033314    237     012     012  
         033317    000                  
    2753 033320    063     104     040  	.ASCII"3D ENGINE FOR MS0511"<12><0>
         033323    105     116     107  
         033326    111     116     105  
         033331    040     106     117  
         033334    122     040     115  
         033337    123     060     065  
         033342    061     061     012  
         033345    000                  
    2754 033346    123     103     110  	.ASCII"SCHOOL COMPUTERS WITH"<12><0>
         033351    117     117     114  
         033354    040     103     117  
         033357    115     120     125  
         033362    124     105     122  
         033365    123     040     127  
         033370    111     124     110  
         033373    012     000          
    2755 033375    124     105     130  	.ASCII"TEXTURE MAPPING SUPPORT."<12><12><0>
         033400    124     125     122  
         033403    105     040     115  
         033406    101     120     120  
         033411    111     116     107  
         033414    040     123     125  
         033417    120     120     117  
         033422    122     124     056  
         033425    012     012     000  
    2756 033430    120     114     101  	.ASCII"PLAYABLE	TECH DEMO."<12><12><0>
         033433    131     101     102  
         033436    114     105     011  
         033441    124     105     103  
         033444    110     040     104  
         033447    105     115     117  
         033452    056     012     012  
         033455    000                  
    2757 033456    106     111     107  	.ASCII"FIGHT MONSTERS FROM THE"<12><0>
         033461    110     124     040  
         033464    115     117     116  
         033467    123     124     105  
         033472    122     123     040  
         033475    106     122     117  
         033500    115     040     124  
         033503    110     105     012  
         033506    000                  
    2758 033507    120     101     123  	.ASCII"PAST AND MAY THE FORCE"<12><0>
         033512    124     040     101  
         033515    116     104     040  
         033520    115     101     131  
         033523    040     124     110  
         033526    105     040     106  
         033531    117     122     103  
         033534    105     012     000  
    2759 033537    102     105     040  	.ASCII"BE WITH YOU!"<12><12><0>
         033542    127     111     124  
         033545    110     040     131  
         033550    117     125     041  
         033553    012     012     000  
    2760 033556    131     117     125  	.ASCII"YOUR TASK IS TO SCORE"<12><0>
         033561    122     040     124  
         033564    101     123     113  
         033567    040     111     123  
         033572    040     124     117  
         033575    040     123     103  
         033600    117     122     105  
         033603    012     000          
    2761 033605    062     065     040  	.ASCII"25 POINTS TO WIN!"<0>
         033610    120     117     111  
         033613    116     124     123  
         033616    040     124     117  
         033621    040     127     111  
         033624    116     041     000  
    2762 033627    000                  	.EVEN
    2763 033630 000004  000002  000013  TX3:	.WORD 4.,2.,11.
    2764 033636    237     103     117  	.ASCII<237>"CONTROLS"<237><12><12><0>
         033641    116     124     122  
         033644    117     114     123  
         033647    237     012     012  
         033652    000                  
    2765 033653    123     120     101  	.ASCII"SPACE - FIRE"<12><0>
         033656    103     105     040  
         033661    055     040     106  
         033664    111     122     105  
         033667    012     000          
    2766 033671    101     122     122  	.ASCII"ARROWS - TURN LEFT, RIGHT"<12><0>
         033674    117     127     123  
         033677    040     055     040  
         033702    124     125     122  
         033705    116     040     114  
         033710    105     106     124  
         033713    054     040     122  
         033716    111     107     110  
         033721    124     012     000  
    2767 033724    101     122     122  	.ASCII"ARROWS, C, Y - MOVE"<12><0>
         033727    117     127     123  
         033732    054     040     103  
         033735    054     040     131  
         033740    040     055     040  
         033743    115     117     126  
         033746    105     012     000  
    2768 033751    123     110     111  	.ASCII"SHIFT, F, W - SLIDE"<12><12><0>
         033754    106     124     054  
         033757    040     106     054  
         033762    040     127     040  
         033765    055     040     123  
         033770    114     111     104  
         033773    105     012     012  
         033776    000                  
    2769 033777    105     116     124  	.ASCII"ENTER - RESTART"<12><12><0>
         034002    105     122     040  
         034005    055     040     122  
         034010    105     123     124  
         034013    101     122     124  
         034016    012     012     000  
    2770 034021    113     061     040  	.ASCII"K1 - MAP"<12><0>
         034024    055     040     115  
         034027    101     120     012  
         034032    000                  
    2771 034033    113     062     040  	.ASCII"K2 - PAUSE"<12><0>
         034036    055     040     120  
         034041    101     125     123  
         034044    105     012     000  
    2772 034047    113     063     054  	.ASCII"K3, J - TURN AROUND"<12><0>
         034052    040     112     040  
         034055    055     040     124  
         034060    125     122     116  
         034063    040     101     122  
         034066    117     125     116  
         034071    104     012     000  
    2773 034074    113     065     040  	.ASCII"K5 - EXIT"<12><12><0>
         034077    055     040     105  
         034102    130     111     124  
         034105    012     012     000  
    2774 034110    101     114     123  	.ASCII"ALSO YOU CAN USE MOUSE"<12><0>
         034113    117     040     131  
         034116    117     125     040  
         034121    103     101     116  
         034124    040     125     123  
         034127    105     040     115  
         034132    117     125     123  
         034135    105     012     000  
    2775                                	.EVEN
    2776 034140 000004  000002  000003  TX4:	.WORD 4.,2.,3.
    2777 034146    237     101     125  	.ASCII<237>"AUTHOR"<237><12><12><0>
         034151    124     110     117  
         034154    122     237     012  
         034157    012     000          
    2778 034161    101     120     122  	.ASCII"APRAKSIN	DMITRY (ADW2RU)"<12><12><0>
         034164    101     113     123  
         034167    111     116     011  
         034172    104     115     111  
         034175    124     122     131  
         034200    040     050     101  
         034203    104     127     062  
         034206    122     125     051  
         034211    012     012     000  
    2779 034214    061     062     056  	.ASCII"12.10.25"<0>
         034217    061     060     056  
         034222    062     065     000  
    2780 034225    000                  	.EVEN
    2781 034226 000027  000014          STRNP:	.WORD 23.,12.
    2782 034232    000     000          STRN:	.ASCII<0><0>
    2783                                	.EVEN
    2784 034234 000020  000020          STRPL:	.WORD 16.,16.
    2785 034240    107     122     102  STRPP1:	.ASCII"GRB"<0>
         034243    000                  
    2786 034244    122     107     102  STRPP2:	.ASCII"RGB"<0>
         034247    000                  
    2787 034250    102     127     061  STRPP3:	.ASCII"BW1"<0>
         034253    000                  
    2788 034254    102     127     062  STRPP4:	.ASCII"BW2"<0>
         034257    000                  
    2789                                	.EVEN
    2790 034260 000023  000024          STRVP:	.WORD 19.,20.
    2791 034264    223     061     056  STRV:	.ASCII<223>"1.0 BETA UKNC"<221><0>
         034267    060     040     102  
         034272    105     124     101  
         034275    040     125     113  
         034300    116     103     221  
         034303    000                  
    2792                                	.EVEN
    2793 034304 000005  000002          STRTP:	.WORD 5.,2.
    2794 034310    222     102     113  STRT:	.ASCII<222>"BK3D.ENGINE"<221><0>
         034313    063     104     056  
         034316    105     116     107  
         034321    111     116     105  
         034324    221     000          
    2795                                	.EVEN
    2796 034326 012704  177777          UNPK:	MOV #-1,R4
    2797 034332 074202                  	XOR R2,R2
    2798 034334 000401                  	BR DCL
    2799                                
    2800 034336 112021                  NXDC:	MOVB (R0)+,(R1)+
    2801 034340 004767  034404'         DCL:	CALL RB
    2802 034344 103774                  	BCS NXDC
    2803                                
    2804 034346 012703  000001          	MOV #1,R3
    2805 034352 060303                  OFN:	ADD R3,R3
    2806 034354 004767  034404'         	CALL RB
    2807 034360 005503                  	ADC R3
    2808 034362 004767  034404'         	CALL RB
    2809 034366 103421                  	BCS OFE
    2810 034370 005303                  	DEC R3
    2811 034372 060303                  	ADD R3,R3
    2812 034374 004767  034404'         	CALL RB
    2813 034400 005503                  	ADC R3
    2814 034402 000763                  	BR OFN
    2815                                
    2816 034404 060202                  RB:	ADD R2,R2
    2817 034406 001401                  	BEQ RBZ
    2818                                	RET
       1 034410 000207                  	RETURN
    2819 034412 112002                  RBZ:	MOVB (R0)+,R2
    2820 034414 000302                  	SWAB R2
    2821 034416 042702  000177          	BIC #177,R2
    2822 034422 052702  000200          	BIS #200,R2
    2823 034426 060202                  	ADD R2,R2
    2824                                	RET
       1 034430 000207                  	RETURN
    2825                                
    2826 034432 162703  000003          OFE:	SUB #3,R3
    2827 034436 103006                  	BCC OF2
    2828                                
    2829 034440 010403                  	MOV R4,R3
    2830 034442 074505                  	XOR R5,R5
    2831 034444 004767  034404'         	CALL RB
    2832 034450 005505                  	ADC R5
    2833 034452 000414                  	BR OF3
    2834                                
    2835 034454 000303                  OF2:	SWAB R3
    2836 034456 112005                  	MOVB (R0)+,R5
    2837 034460 042705  177400          	BIC #177400,R5
    2838 034464 050503                  	BIS R5,R3
    2839 034466 005103                  	COM R3
    2840 034470 001434                  	BEQ BRK
    2841 034472 074505                  	XOR R5,R5
    2842 034474 000261                  	SEC
    2843 034476 006003                  	ROR R3
    2844 034500 005505                  	ADC R5
    2845 034502 010304                  	MOV R3,R4
    2846                                
    2847 034504 060505                  OF3:	ADD R5,R5
    2848 034506 004767  034404'         	CALL RB
    2849 034512 005505                  	ADC R5
    2850 034514 001012                  	BNE LF1
    2851                                
    2852 034516 005205                  	INC R5
    2853 034520 060505                  NXLF:	ADD R5,R5
    2854 034522 004767  034404'         	CALL RB
    2855 034526 005505                  	ADC R5
    2856 034530 004767  034404'         	CALL RB
    2857 034534 103371                  	BCC NXLF
    2858 034536 062705  000002          	ADD #2,R5
    2859                                
    2860 034542 020327  175400          LF1:	CMP R3,#175400
    2861 034546 005505                  	ADC R5
    2862 034550 005205                  	INC R5
    2863                                
    2864 034552 060103                  	ADD R1,R3
    2865 034554 112321                  NXMV:	MOVB (R3)+,(R1)+
    2866 034556 077502                  	SOB R5,NXMV
    2867 034560 000667                  	BR DCL
    2868                                
    2869                                BRK:	RET
       1 034562 000207                  	RETURN
    2870 034564 010067  035140'         TXCH:	MOV R0,PPUV1
    2871 034570 010267  035142'         	MOV R2,PPUV2
    2872 034574 016767  034634' 035144' 	MOV CHMSK,PPUV3
    2873 034602 016767  034636' 035146' 	MOV CHUND,PPUV4
    2874 034610 012700                  	MOV (PC)+,R0
    2875 034612 000007                  TXMDE:	.WORD F_PCHR
    2876 034614 004767  001242'         	CALL SCH2
    2877 034620 005737  035150          	TST @#PpuComm
    2878 034624 001375                  	BNE .-4
    2879 034626 016700  035140'         	MOV PPUV1,R0
    2880                                	RET
       1 034632 000207                  	RETURN
    2881 034634 000000                  CHMSK:	.WORD 0
    2882 034636 000000                  CHUND:	.WORD 0
    2883 034640 010003                  TXST:	MOV R0,R3
    2884 034642 005002                  1$:	CLR R2
    2885 034644 152102                  	BISB (R1)+,R2
    2886 034646 001426                  	BEQ 2$
    2887 034650 120227  000012          	CMPB R2,#12
    2888 034654 001424                  	BEQ 3$
    2889 034656 120227  000221          	CMPB R2,#221
    2890 034662 001425                  	BEQ 4$
    2891 034664 120227  000222          	CMPB R2,#222
    2892 034670 001425                  	BEQ 5$
    2893 034672 120227  000223          	CMPB R2,#223
    2894 034676 001426                  	BEQ 6$
    2895 034700 120227  000237          	CMPB R2,#237
    2896 034704 001427                  	BEQ 7$
    2897 034706 105702                  	TSTB R2
    2898 034710 100002                  	BPL 8$
    2899 034712 162702  000040          	SUB #32.,R2
    2900 034716 004767  034564'         8$:	CALL TXCH
    2901 034722 000747                  	BR 1$
    2902                                2$:	RET
       1 034724 000207                  	RETURN
    2903 034726 062703  001560          3$:	ADD #880.,R3
    2904 034732 010300                  	MOV R3,R0
    2905 034734 000742                  	BR 1$
    2906 034736 005067  034634'         4$:	CLR CHMSK
    2907 034742 000737                  	BR 1$
    2908 034744 012767  000377  034634' 5$:	MOV #^B0000000011111111,CHMSK
    2909 034752 000733                  	BR 1$
    2910 034754 012767  177400  034634' 6$:	MOV #^B1111111100000000,CHMSK
    2911 034762 000727                  	BR 1$
    2912 034764 005167  034636'         7$:	COM CHUND
    2913 034770 000724                  	BR 1$
    2914 034772 012046                  TXPS:	MOV (R0)+,-(SP)
    2915 034774 006316                  	ASL (SP)
    2916 034776 012000                  	MOV (R0)+,R0
    2917 035000 010046                  	MOV R0,-(SP)
    2918 035002 006300                  	ASL R0
    2919 035004 010046                  	MOV R0,-(SP)
    2920 035006 006300                  	ASL R0
    2921 035010 006300                  	ASL R0
    2922 035012 062600                  	ADD (SP)+,R0
    2923 035014 062600                  	ADD (SP)+,R0
    2924 035016 006300                  	ASL R0
    2925 035020 006300                  	ASL R0
    2926 035022 006300                  	ASL R0
    2927 035024 006300                  	ASL R0
    2928 035026 010046                  	MOV R0,-(SP)
    2929 035030 006300                  	ASL R0
    2930 035032 006300                  	ASL R0
    2931 035034 062600                  	ADD (SP)+,R0
    2932 035036 062600                  	ADD (SP)+,R0
    2933 035040 062700  102410          	ADD #C_TADDR+2400,R0
    2934                                	RET
       1 035044 000207                  	RETURN
    2935                                
    2936 035046 000000                  KeyJ:		.WORD 0
    2937 035050 000000                  KeyC:		.WORD 0
    2938 035052 000000                  KeyF:		.WORD 0
    2939 035054 000000                  KeyY:		.WORD 0
    2940 035056 000000                  KeyW:		.WORD 0
    2941 035060 000000                  Key8:		.WORD 0
    2942 035062 000000                  Key7:		.WORD 0
    2943 035064 000000                  Key6:		.WORD 0
    2944 035066 000000                  Key5:		.WORD 0
    2945 035070 000000                  Key4:		.WORD 0
    2946 035072 000000                  Key3:		.WORD 0
    2947 035074 000000                  Key2:		.WORD 0
    2948 035076 000000                  Key1:		.WORD 0
    2949 035100 000000                  KeyK5:		.WORD 0
    2950 035102 000000                  KeyK4:		.WORD 0
    2951 035104 000000                  KeyK3:		.WORD 0
    2952 035106 000000                  KeyK2:		.WORD 0
    2953 035110 000000                  KeyK1:		.WORD 0
    2954 035112 000000                  KeyStop:	.WORD 0
    2955 035114 000000                  KeyUst:		.WORD 0
    2956 035116 000000                  KeyShift:	.WORD 0
    2957 035120 000000                  KeyEnter:	.WORD 0
    2958 035122 000000                  KeySpace:	.WORD 0
    2959 035124 000000                  KeyRight:	.WORD 0
    2960 035126 000000                  KeyLeft:	.WORD 0
    2961 035130 000000                  KeyDown:	.WORD 0
    2962 035132 000000                  KeyUp:		.WORD 0
    2963 035134 000000                  KeyAny:		.WORD 0
    2964 035136 000000                  KeyCurrent:	.WORD 0
    2965 035140 000000                  PPUV1:		.WORD 0
    2966 035142 000000                  PPUV2:		.WORD 0
    2967 035144 000000                  PPUV3:		.WORD 0
    2968 035146 000000                  PPUV4:		.WORD 0
    2969 035150 000000                  PpuComm:	.WORD 0
    2970 035152 000000                  MSST:		.WORD 0
    2971 035154 000000                  APAL:		.WORD 0
    2972                                
    2973 035156    077     040     165  NOMEM:	.ASCIZ"? unable to allocate memory in PPU"
         035161    156     141     142  
         035164    154     145     040  
         035167    164     157     040  
         035172    141     154     154  
         035175    157     143     141  
         035200    164     145     040  
         035203    155     145     155  
         035206    157     162     171  
         035211    040     151     156  
         035214    040     120     120  
         035217    125     000          
    2974 035221    000                  	.EVEN
    2975                                
    2976 035222 035226                  PPMSG:	.WORD PPARR
    2977 035224 000401                          .WORD 401
    2978                                
    2979 035226    000                  PPARR:	.BYTE 0
    2980 035227    000                  PPCMD:	.BYTE 0
    2981 035230 000032                  	.WORD 32
    2982 035232 000000                  PPAPP:	.WORD 0
    2983 035234 000000                  PPACP:	.WORD 0
    2984 035236 000000                  PPLEN:	.WORD 0
    2985                                
    2986 035240 012700  035222          PPSEN:	MOV #PPMSG,R0
    2987 035244 012701  000005          	MOV #5,R1
    2988 035250 000402                  	BR 1$
    2989 035252 112037  176676          2$:	MOVB (R0)+,@#176676
    2990 035256 105737  176674          1$:	TSTB @#176674
    2991 035262 100375                  	BPL 1$
    2992 035264 077106                  	SOB R1,2$
    2993 035266 000207                  	RETURN
    2994                                
    2995 035270 112767  000001  035227' PPRUN:	MOVB #1,PPCMD
    2996 035276 010567  035234'         	MOV R5,PPACP
    2997 035302 004767  035240'         	CALL PPSEN
    2998 035306 105767  035226'         	TSTB PPARR
    2999 035312 001406                  	BEQ 10$
    3000 035314 106427  000000          	MTPS #0
    3001 035320 012700  035156          	MOV #NOMEM,R0
    3002 035324 104351                  	EMT #351
    3003 035326 104350                  	EMT #350
    3004 035330 112767  000020  035227' 10$:	MOVB #20,PPCMD
    3005 035336 010567  035236'         	MOV R5,PPLEN
    3006 035342 010467  035234'         	MOV R4,PPACP
    3007 035346 004767  035240'         	CALL PPSEN
    3008 035352 112767  000030  035227' 	MOVB #30,PPCMD
    3009 035360 004767  035240'         	CALL PPSEN
    3010 035364 000207                  	RETURN
    3011                                
    3012 035366 112767  000002  035227' PPFREE:	MOVB #2,PPCMD
    3013 035374 012767  006074  035234' 	MOV #PPUEND-PPUBEG/2,PPACP	; BUG FIX
    3014 035402 004767  035240'         	CALL PPSEN
    3015 035406 000207                  	RETURN
    3016                                
    3017                                PPUBEG:
    3018                                
    3019 035410 106427  000200          	MTPS #200
    3020 035414 004767  036160'         	CALL SAVE
    3021 035420 004767  036442'         	CALL IVTS
    3022 035424 010746                  	MOV PC,-(SP)
    3023 035426 062716  003300          	ADD #KINT-.,(SP)
    3024 035432 012637  000300          	MOV (SP)+,@#300
    3025 035436 052737  000100  177700  	BIS #100,@#177700
    3026 035444 012737  007774  007214  	MOV #7774,@#7214
    3027 035452 005067  035646'         	CLR NOMSE
    3028 035456 010746                  	MOV PC,-(SP)
    3029 035460 062716  000162          	ADD #I004-.,(SP)
    3030 035464 012637  000004          	MOV (SP)+,@#4
    3031 035470 005737  177400          	TST @#177400
    3032 035474 012737  016465  177010  	MOV #MSST/2,@#177010
    3033 035502 005037  177014          	CLR @#177014
    3034 035506 012767  000401  040700' 	MOV #256.+1.,PMSST
    3035 035514 010746                  	MOV PC,-(SP)
    3036 035516 062716  002226          	ADD #CH2PLI-.,(SP)
    3037 035522 012637  000340          	MOV (SP)+,@#340
    3038 035526 012737  000200  000342  	MOV #200,@#342
    3039 035534 052737  000002  177066  	BIS #2,@#177066
    3040 035542 052737  001400  177054  	BIS #^B0000001100000000,@#177054
    3041 035550 042737  017600  177716  	BIC #^B0001111110000000,@#177716
    3042 035556 004767  040702'         	CALL TINIT
    3043 035562 010746                  	MOV PC,-(SP)
    3044 035564 062716  002626          	ADD #POP-.,(SP)
    3045 035570 012637  000304          	MOV (SP)+,@#304
    3046 035574 010746                  	MOV PC,-(SP)
    3047 035576 062716  002564          	ADD #POPT-.,(SP)
    3048 035602 012637  000100          	MOV (SP)+,@#100
    3049 035606 012767  000200  040450' 	MOV #128.,TON+2
    3050 035614 052737  000107  177710  	BIS #107,@#177710
    3051 035622 042737  000400  177054  	BIC #^B0000000100000000,@#177054
    3052 035630 004767  035720'         	CALL READY
    3053 035634 106427  000000          	MTPS #0
    3054 035640 000207                  	RETURN
    3055                                
    3056 035642 012727  000001          I004:	MOV #1,(PC)+
    3057 035646 000000                  NOMSE:	.WORD 0
    3058 035650 013746  177010          	MOV @#177010,-(SP)
    3059 035654 010046                  	MOV R0,-(SP)
    3060 035656 012700                  	MOV (PC)+,R0
    3061 035660 000000                  FLGC:	.WORD 0
    3062 035662 005267  035660'         	INC FLGC
    3063 035666 042767  177700  035660' 	BIC #177700,FLGC
    3064 035674 062700  051010          	ADD #51010,R0
    3065 035700 010037  177010          	MOV R0,@#177010
    3066 035704 005137  177014          	COM @#177014
    3067 035710 012600                  	MOV (SP)+,R0
    3068 035712 012637  177010          	MOV (SP)+,@#177010
    3069 035716 000002                  	RTI
    3070                                
    3071                                READY:
    3072 035720 013746  177010          	MOV @#177010,-(SP)
    3073 035724 012737  016464  177010  	MOV #PpuComm/2,@#177010
    3074 035732 005037  177014          	CLR @#177014
    3075 035736 012637  177010          	MOV (SP)+,@#177010
    3076                                	RET
       1 035742 000207                  	RETURN
    3077                                
    3078 035744 013746  177010          SAVEM:	MOV @#177010,-(SP)
    3079 035750 012700  020000          	MOV #40000/2,R0		; FROM
    3080 035754 012701  100000          	MOV #100000,R1
    3081 035760 012702  036120          	MOV #30880./2,R2	; HOW MANY
    3082 035764 010037  177010          1$:	MOV R0,@#177010
    3083 035770 005200                  	INC R0
    3084 035772 013703  177014          	MOV @#177014,R3
    3085 035776 010137  177010          	MOV R1,@#177010
    3086 036002 005201                  	INC R1
    3087 036004 010337  177012          	MOV R3,@#177012
    3088 036010 000303                  	SWAB R3
    3089 036012 010137  177010          	MOV R1,@#177010
    3090 036016 005201                  	INC R1
    3091 036020 010337  177012          	MOV R3,@#177012
    3092 036024 077221                  	SOB R2,1$
    3093 036026 012637  177010          	MOV (SP)+,@#177010
    3094                                	RET
       1 036032 000207                  	RETURN
    3095                                
    3096 036034 013746  177010          RESTM:	MOV @#177010,-(SP)
    3097 036040 012700  020000          	MOV #40000/2,R0		; INTO
    3098 036044 012701  100000          	MOV #100000,R1
    3099 036050 012702  036120          	MOV #30880./2,R2	; HOW MANY
    3100 036054 010137  177010          1$:	MOV R1,@#177010
    3101 036060 005201                  	INC R1
    3102 036062 013703  177012          	MOV @#177012,R3
    3103 036066 000303                  	SWAB R3
    3104 036070 010137  177010          	MOV R1,@#177010
    3105 036074 005201                  	INC R1
    3106 036076 053703  177012          	BIS @#177012,R3
    3107 036102 010037  177010          	MOV R0,@#177010
    3108 036106 005200                  	INC R0
    3109 036110 000303                  	SWAB R3
    3110 036112 010337  177014          	MOV R3,@#177014
    3111 036116 077222                  	SOB R2,1$
    3112 036120 012637  177010          	MOV (SP)+,@#177010
    3113                                	RET
       1 036124 000207                  	RETURN
    3114                                
    3115 036126 000000                  OLD004:	.WORD 0
    3116 036130 000000                  OLD272:	.WORD 0
    3117 036132 000000                  OLD100:	.WORD 0
    3118 036134 000000                  OLD304:	.WORD 0
    3119 036136 000000                  OLD340:	.WORD 0
    3120 036140 000000                  OLD342:	.WORD 0
    3121 036142 000000                  OLD300:	.WORD 0
    3122 036144 000000                  OL7214:	.WORD 0
    3123 036146 000000                  OLD010: .WORD 0
    3124 036150 000000                  OLDX00: .WORD 0
    3125 036152 000000                  OLDX66: .WORD 0
    3126 036154 000000                  OLDX16: .WORD 0
    3127 036156 000000                  OLDX54:	.WORD 0
    3128                                
    3129 036160 013767  000004  036126' SAVE:	MOV @#4,OLD004
    3130 036166 013767  000272  036130'         MOV @#272,OLD272
    3131 036174 013767  000100  036132' 	MOV @#100,OLD100
    3132 036202 013767  000304  036134' 	MOV @#304,OLD304
    3133 036210 013767  000340  036136' 	MOV @#340,OLD340
    3134 036216 013767  000342  036140' 	MOV @#342,OLD342
    3135 036224 013767  000300  036142' 	MOV @#300,OLD300
    3136 036232 013767  007214  036144' 	MOV @#7214,OL7214
    3137 036240 013767  177010  036146' 	MOV @#177010,OLD010
    3138 036246 013767  177700  036150' 	MOV @#177700,OLDX00
    3139 036254 013767  177066  036152' 	MOV @#177066,OLDX66
    3140 036262 013767  177716  036154' 	MOV @#177716,OLDX16
    3141 036270 013767  177054  036156' 	MOV @#177054,OLDX54
    3142 036276 004767  035744'         	CALL SAVEM
    3143 036302 000207                  	RETURN
    3144                                
    3145 036304 004767  036034'         REST:	CALL RESTM
    3146 036310 016737  036156' 177054  	MOV OLDX54,@#177054
    3147 036316 016737  036154' 177716  	MOV OLDX16,@#177716
    3148 036324 016737  036152' 177066  	MOV OLDX66,@#177066
    3149 036332 016737  036150' 177700  	MOV OLDX00,@#177700
    3150 036340 005037  177712          	CLR @#177712
    3151 036344 016737  036146' 177010  	MOV OLD010,@#177010
    3152 036352 016737  036144' 007214  	MOV OL7214,@#7214
    3153 036360 016737  036142' 000300  	MOV OLD300,@#300
    3154 036366 016737  036136' 000340  	MOV OLD340,@#340
    3155 036374 016737  036140' 000342  	MOV OLD342,@#342
    3156 036402 016737  036134' 000304  	MOV OLD304,@#304
    3157 036410 016737  036132' 000100  	MOV OLD100,@#100
    3158 036416 016737  036130' 000272  	MOV OLD272,@#272
    3159 036424 016737  036126' 000004  	MOV OLD004,@#4
    3160 036432 000207                  	RETURN
    3161 036434 000000                  VT1A:	.WORD 0
    3162 036436 000000                  VT2A:	.WORD 0
    3163 036440 000000                  VT3A:	.WORD 0
    3164 036442 010700                  IVTS:	MOV PC,R0
    3165 036444 062700  004206          	ADD #VTABS-.,R0
    3166 036450 062700  000007          	ADD #7,R0
    3167 036454 042700  000007          	BIC #7,R0
    3168 036460 010067  036434'         	MOV R0,VT1A
    3169 036464 012720  114610          	MOV #114610,(R0)+
    3170 036470 012720  125314          	MOV #125314,(R0)+
    3171 036474 005020                  	CLR (R0)+
    3172 036476 010010                  	MOV R0,(R0)
    3173 036500 062710  000002          	ADD #2,(R0)
    3174 036504 052720  000002          	BIS #2,(R0)+
    3175 036510 012720  024237          	MOV #24237,(R0)+
    3176 036514 012720  000007          	MOV #7,(R0)+
    3177 036520 005020                  	CLR (R0)+
    3178 036522 010010                  	MOV R0,(R0)
    3179 036524 062720  000002          	ADD #2,(R0)+
    3180 036530 012701  000020          	MOV #16.,R1
    3181 036534 005020                  1$:     CLR (R0)+
    3182 036536 010010                  	MOV R0,(R0)
    3183 036540 062720  000002          	ADD #2,(R0)+
    3184 036544 077105                  	SOB R1,1$
    3185 036546 012701  000020          	MOV #16.,R1
    3186 036552 012720  051000          2$:     MOV #51000,(R0)+
    3187 036556 010010                  	MOV R0,(R0)
    3188 036560 062720  000002          	ADD #2,(R0)+
    3189 036564 077106                  	SOB R1,2$
    3190 036566 012702  020000          	MOV #20000,R2
    3191 036572 012703  100000          	MOV #100000,R3
    3192 036576 012701  000100          	MOV #64.,R1
    3193 036602 010220                  3$:     MOV R2,(R0)+
    3194 036604 010010                  	MOV R0,(R0)
    3195 036606 062720  000002          	ADD #2,(R0)+
    3196 036612 062702  000120          	ADD #80.,R2
    3197 036616 010320                  	MOV R3,(R0)+
    3198 036620 010010                  	MOV R0,(R0)
    3199 036622 062720  000002          	ADD #2,(R0)+
    3200 036626 062703  000120          	ADD #80.,R3
    3201 036632 077115                  	SOB R1,3$
    3202 036634 012703  044000          	MOV #44000,R3
    3203 036640 162702  000120          	SUB #80.,R2
    3204 036644 010220                  	MOV R2,(R0)+
    3205 036646 010010                  	MOV R0,(R0)
    3206 036650 062720  000002          	ADD #2,(R0)+
    3207 036654 010320                  	MOV R3,(R0)+
    3208 036656 010010                  	MOV R0,(R0)
    3209 036660 062720  000002          	ADD #2,(R0)+
    3210 036664 162702  000120          	SUB #80.,R2
    3211 036670 010220                  	MOV R2,(R0)+
    3212 036672 010010                  	MOV R0,(R0)
    3213 036674 062720  000002          	ADD #2,(R0)+
    3214 036700 052760  000001  177776  	BIS #1,-2(R0)
    3215 036706 010320                  	MOV R3,(R0)+
    3216 036710 010010                  	MOV R0,(R0)
    3217 036712 062720  000002          	ADD #2,(R0)+
    3218 036716 062703  000120          	ADD #80.,R3
    3219 036722 052760  000002  177776  	BIS #2,-2(R0)
    3220 036730 012720  024017          	MOV #24017,(R0)+
    3221 036734 012720  000007          	MOV #7,(R0)+
    3222 036740 162702  000120          	SUB #80.,R2
    3223 036744 010220                  	MOV R2,(R0)+
    3224 036746 010010                  	MOV R0,(R0)
    3225 036750 062720  000002          	ADD #2,(R0)+
    3226 036754 052760  000002  177776  	BIS #2,-2(R0)
    3227 036762 012720  024237          	MOV #24237,(R0)+
    3228 036766 012720  000007          	MOV #7,(R0)+
    3229 036772 010320                  	MOV R3,(R0)+
    3230 036774 010010                  	MOV R0,(R0)
    3231 036776 062720  000002          	ADD #2,(R0)+
    3232 037002 162702  000120          	SUB #80.,R2
    3233 037006 010220                  	MOV R2,(R0)+
    3234 037010 010010                  	MOV R0,(R0)
    3235 037012 062720  000002          	ADD #2,(R0)+
    3236 037016 010320                  	MOV R3,(R0)+
    3237 037020 010010                  	MOV R0,(R0)
    3238 037022 062720  000002          	ADD #2,(R0)+
    3239 037026 062703  000120          	ADD #80.,R3
    3240 037032 052760  000001  177776  	BIS #1,-2(R0)
    3241 037040 012701  000074          	MOV #64.-4.,R1
    3242 037044 162702  000120          4$:     SUB #80.,R2
    3243 037050 010220                  	MOV R2,(R0)+
    3244 037052 010010                  	MOV R0,(R0)
    3245 037054 062720  000002          	ADD #2,(R0)+
    3246 037060 010320                  	MOV R3,(R0)+
    3247 037062 010010                  	MOV R0,(R0)
    3248 037064 062720  000002          	ADD #2,(R0)+
    3249 037070 030127  000001          	BIT R1,#1
    3250 037074 001402                  	BEQ 40$
    3251 037076 062703  000120          	ADD #80.,R3
    3252                                40$:
    3253 037102 077120                  	SOB R1,4$
    3254 037104 012720  051000          	MOV #51000,(R0)+
    3255 037110 010010                  	MOV R0,(R0)
    3256 037112 162720  000002          	SUB #2,(R0)+
    3257 037116 062700  000007          	ADD #7,R0
    3258 037122 042700  000007          	BIC #7,R0
    3259 037126 010067  036436'         	MOV R0,VT2A
    3260 037132 012720  114610          	MOV #114610,(R0)+
    3261 037136 012720  125314          	MOV #125314,(R0)+
    3262 037142 005020                  	CLR (R0)+
    3263 037144 010010                  	MOV R0,(R0)
    3264 037146 062710  000002          	ADD #2,(R0)
    3265 037152 052720  000002          	BIS #2,(R0)+
    3266 037156 012720  000020          	MOV #20,(R0)+
    3267 037162 012720  000007          	MOV #7,(R0)+
    3268 037166 005020                  	CLR (R0)+
    3269 037170 010010                  	MOV R0,(R0)
    3270 037172 062720  000002          	ADD #2,(R0)+
    3271 037176 012701  000020          	MOV #16.,R1
    3272 037202 005020                  5$:     CLR (R0)+
    3273 037204 010010                  	MOV R0,(R0)
    3274 037206 062720  000002          	ADD #2,(R0)+
    3275 037212 077105                  	SOB R1,5$
    3276 037214 012701  000020          	MOV #16.,R1
    3277 037220 012720  051000          6$:     MOV #51000,(R0)+
    3278 037224 010010                  	MOV R0,(R0)
    3279 037226 062720  000002          	ADD #2,(R0)+
    3280 037232 077106                  	SOB R1,6$
    3281 037234 012701  000400          	MOV #256.,R1
    3282 037240 012702  100000          	MOV #100000,R2
    3283 037244 010220                  7$:	MOV R2,(R0)+
    3284 037246 010010                  	MOV R0,(R0)
    3285 037250 062720  000002          	ADD #2,(R0)+
    3286 037254 062702  000120          	ADD #80.,R2
    3287 037260 077107                  	SOB R1,7$
    3288 037262 012720  051000          	MOV #51000,(R0)+
    3289 037266 010010                  	MOV R0,(R0)
    3290 037270 162720  000002          	SUB #2,(R0)+
    3291 037274 062700  000007          	ADD #7,R0
    3292 037300 042700  000007          	BIC #7,R0
    3293 037304 010067  036440'         	MOV R0,VT3A
    3294 037310 012720  114610          	MOV #114610,(R0)+
    3295 037314 012720  125314          	MOV #125314,(R0)+
    3296 037320 005020                  	CLR (R0)+
    3297 037322 010010                  	MOV R0,(R0)
    3298 037324 062710  000002          	ADD #2,(R0)
    3299 037330 052720  000002          	BIS #2,(R0)+
    3300 037334 012720  024237          	MOV #24237,(R0)+
    3301 037340 012720  000007          	MOV #7,(R0)+
    3302 037344 005020                  	CLR (R0)+
    3303 037346 010010                  	MOV R0,(R0)
    3304 037350 062720  000002          	ADD #2,(R0)+
    3305 037354 012701  000020          	MOV #16.,R1
    3306 037360 005020                  8$:     CLR (R0)+
    3307 037362 010010                  	MOV R0,(R0)
    3308 037364 062720  000002          	ADD #2,(R0)+
    3309 037370 077105                  	SOB R1,8$
    3310 037372 012701  000020          	MOV #16.,R1
    3311 037376 012720  051000          9$:     MOV #51000,(R0)+
    3312 037402 010010                  	MOV R0,(R0)
    3313 037404 062720  000002          	ADD #2,(R0)+
    3314 037410 077106                  	SOB R1,9$
    3315 037412 012702  020000          	MOV #20000,R2
    3316 037416 012703  100000          	MOV #100000,R3
    3317 037422 012701  000100          	MOV #64.,R1
    3318 037426 010220                  10$:	MOV R2,(R0)+
    3319 037430 010010                  	MOV R0,(R0)
    3320 037432 062720  000002          	ADD #2,(R0)+
    3321 037436 062702  000120          	ADD #80.,R2
    3322 037442 010320                  	MOV R3,(R0)+
    3323 037444 010010                  	MOV R0,(R0)
    3324 037446 062720  000002          	ADD #2,(R0)+
    3325 037452 062703  000120          	ADD #80.,R3
    3326 037456 077115                  	SOB R1,10$
    3327 037460 012703  051120          	MOV #51120,R3
    3328 037464 162702  000120          	SUB #80.,R2
    3329 037470 010220                  	MOV R2,(R0)+
    3330 037472 010010                  	MOV R0,(R0)
    3331 037474 062720  000002          	ADD #2,(R0)+
    3332 037500 010320                  	MOV R3,(R0)+
    3333 037502 010010                  	MOV R0,(R0)
    3334 037504 062720  000002          	ADD #2,(R0)+
    3335 037510 162702  000120          	SUB #80.,R2
    3336 037514 010220                  	MOV R2,(R0)+
    3337 037516 010010                  	MOV R0,(R0)
    3338 037520 062720  000002          	ADD #2,(R0)+
    3339 037524 052760  000001  177776  	BIS #1,-2(R0)
    3340 037532 010320                  	MOV R3,(R0)+
    3341 037534 010010                  	MOV R0,(R0)
    3342 037536 062720  000002          	ADD #2,(R0)+
    3343 037542 062703  000120          	ADD #80.,R3
    3344 037546 052760  000002  177776  	BIS #2,-2(R0)
    3345 037554 012720  024017          	MOV #24017,(R0)+
    3346 037560 012720  000007          	MOV #7,(R0)+
    3347 037564 162702  000120          	SUB #80.,R2
    3348 037570 010220                  	MOV R2,(R0)+
    3349 037572 010010                  	MOV R0,(R0)
    3350 037574 062720  000002          	ADD #2,(R0)+
    3351 037600 052760  000002  177776  	BIS #2,-2(R0)
    3352 037606 012720  024237          	MOV #24237,(R0)+
    3353 037612 012720  000007          	MOV #7,(R0)+
    3354 037616 010320                  	MOV R3,(R0)+
    3355 037620 010010                  	MOV R0,(R0)
    3356 037622 062720  000002          	ADD #2,(R0)+
    3357 037626 162702  000120          	SUB #80.,R2
    3358 037632 010220                  	MOV R2,(R0)+
    3359 037634 010010                  	MOV R0,(R0)
    3360 037636 062720  000002          	ADD #2,(R0)+
    3361 037642 010320                  	MOV R3,(R0)+
    3362 037644 010010                  	MOV R0,(R0)
    3363 037646 062720  000002          	ADD #2,(R0)+
    3364 037652 062703  000120          	ADD #80.,R3
    3365 037656 052760  000001  177776  	BIS #1,-2(R0)
    3366 037664 012701  000074          	MOV #64.-4.,R1
    3367 037670 162702  000120          11$:	SUB #80.,R2
    3368 037674 010220                  	MOV R2,(R0)+
    3369 037676 010010                  	MOV R0,(R0)
    3370 037700 062720  000002          	ADD #2,(R0)+
    3371 037704 010320                  	MOV R3,(R0)+
    3372 037706 010010                  	MOV R0,(R0)
    3373 037710 062720  000002          	ADD #2,(R0)+
    3374 037714 030127  000001          	BIT R1,#1
    3375 037720 001402                  	BEQ 110$
    3376 037722 062703  000120          	ADD #80.,R3
    3377                                110$:
    3378 037726 077120                  	SOB R1,11$
    3379 037730 012720  051000          	MOV #51000,(R0)+
    3380 037734 010010                  	MOV R0,(R0)
    3381 037736 162720  000002          	SUB #2,(R0)+
    3382 037742 000207                  	RETURN
    3383                                
    3384 037744 010046                  CH2PLI:	MOV R0,-(SP)
    3385 037746 010146                  	MOV R1,-(SP)
    3386 037750 010246                  	MOV R2,-(SP)
    3387 037752 010346                  	MOV R3,-(SP)
    3388 037754 010446                  	MOV R4,-(SP)
    3389 037756 010546                  	MOV R5,-(SP)
    3390 037760 113700  177064          	MOVB @#177064,R0
    3391 037764 006300                  	ASL R0
    3392 037766 060007                  	ADD R0,PC
    3393 037770 000426                  	BR CH2P0
    3394 037772 000434                  	BR CH2P1
    3395 037774 000442                  	BR CH2P2
    3396 037776 000450                  	BR CH2P3
    3397 040000 000456                  	BR CH2P4
    3398 040002 000464                  	BR CH2P5
    3399 040004 000466                  	BR CH2P6
    3400 040006 000470                  	BR CH2P7
    3401 040010 000475                  	BR CH2P8
    3402 040012 000477                  	BR CH2P9
    3403 040014 000502                  	BR CH2P10
    3404 040016 000510                  	BR CH2P11
    3405 040020 000512                  	BR CH2P12
    3406 040022 000465                  	BR CH2P13
    3407 040024 004767  035720'         EXP:	CALL READY
    3408 040030 012605                  	MOV (SP)+,R5
    3409 040032 012604                  	MOV (SP)+,R4
    3410 040034 012603                  	MOV (SP)+,R3
    3411 040036 012602                  	MOV (SP)+,R2
    3412 040040 012601                  	MOV (SP)+,R1
    3413 040042 012600                  	MOV (SP)+,R0
    3414 040044 000002                  	RTI
    3415                                
    3416                                CH2P0:
    3417 040046 016746  036434'         	MOV VT1A,-(SP)
    3418 040052 052716  000006          	BIS #6,(SP)
    3419 040056 012637  000272          	MOV (SP)+,@#272
    3420 040062 000760                  	BR EXP
    3421                                CH2P1:
    3422 040064 016746  036436'         	MOV VT2A,-(SP)
    3423 040070 052716  000006          	BIS #6,(SP)
    3424 040074 012637  000272          	MOV (SP)+,@#272
    3425 040100 000751                  	BR EXP
    3426                                CH2P2:
    3427 040102 012767  000736  040450' 	MOV #478.,TON+2
    3428 040110 012767  000005  040364' 	MOV #5.,COUNT
    3429 040116 000742                  	BR EXP
    3430                                CH2P3:
    3431 040120 012767  000573  040450' 	MOV #379.,TON+2
    3432 040126 012767  000005  040364' 	MOV #5.,COUNT
    3433 040134 000733                  	BR EXP
    3434                                CH2P4:
    3435 040136 012767  000357  040450' 	MOV #239.,TON+2
    3436 040144 012767  000005  040364' 	MOV #5.,COUNT
    3437 040152 000724                  	BR EXP
    3438 040154 004767  036442'         CH2P5:	CALL IVTS
    3439 040160 000721                  	BR EXP
    3440 040162 004767  036304'         CH2P6:	CALL REST
    3441 040166 000716                  	BR EXP
    3442 040170 004767  041636'         CH2P7:  CALL XTXCH
    3443 040174 000713                  	BR EXP
    3444 040176 004767  042160'         CH2P13:	CALL XTXCH2
    3445 040202 000710                  	BR EXP
    3446 040204 004767  042412'         CH2P8:  CALL XPRCH
    3447 040210 000705                  	BR EXP
    3448 040212 042737  001000  177054  CH2P9:	BIC #^B0000001000000000,@#177054
    3449 040220 000701                  	BR EXP
    3450 040222 016746  036440'         CH2P10:	MOV VT3A,-(SP)
    3451 040226 052716  000006          	BIS #6,(SP)
    3452 040232 012637  000272          	MOV (SP)+,@#272
    3453 040236 000672                  	BR EXP
    3454 040240 004767  040456'         CH2P11:	CALL MSSPR
    3455 040244 000667                  	BR EXP
    3456 040246 013746  177010          CH2P12: MOV @#177010,-(SP)
    3457 040252 012737  016466  177010  	MOV #APAL/2,@#177010
    3458 040260 013700  177014          	MOV @#177014,R0
    3459 040264 006300                  	ASL R0
    3460 040266 006300                  	ASL R0
    3461 040270 010701                  	MOV PC,R1
    3462 040272 062701  000050          	ADD #PALTAB-.,R1
    3463 040276 060001                  	ADD R0,R1
    3464 040300 012100                  	MOV (R1)+,R0
    3465 040302 011101                  	MOV (R1),R1
    3466 040304 016702  036434'         	MOV VT1A,R2
    3467 040310 010022                  	MOV R0,(R2)+
    3468 040312 010112                  	MOV R1,(R2)
    3469 040314 016702  036436'         	MOV VT2A,R2
    3470 040320 010022                  	MOV R0,(R2)+
    3471 040322 010112                  	MOV R1,(R2)
    3472 040324 016702  036440'         	MOV VT3A,R2
    3473 040330 010022                  	MOV R0,(R2)+
    3474 040332 010112                  	MOV R1,(R2)
    3475 040334 012637  177010          	MOV (SP)+,@#177010
    3476 040340 000631                  	BR EXP
    3477 040342 114610  125314          PALTAB:	.WORD 114610,125314
    3478 040346 114610  146252          	.WORD 114610,146252
    3479 040352 135610  177756          	.WORD 135610,177756
    3480 040356 156610  177756          	.WORD 156610,177756
    3481                                
    3482 040362 005327                  POPT:	DEC (PC)+
    3483 040364 000005                  COUNT:	.WORD 5.
    3484 040366 001006                  	BNE 1$
    3485 040370 012767  000200  040450' 	MOV #128.,TON+2
    3486 040376 012767  000005  040364' 	MOV #5.,COUNT
    3487 040404 004767  040456'         1$:	CALL MSSPR
    3488 040410 000002                  	RTI
    3489                                
    3490 040412 005737  177714          POP:	TST @#177714
    3491 040416 005737  177714          	TST @#177714
    3492 040422 026727  040450' 000200  	CMP TON+2,#128.
    3493 040430 001406                  	BEQ TON
    3494 040432 010046                  	MOV R0,-(SP)
    3495 040434 012700  000200          	MOV #200,R0
    3496 040440 074037  177716          	XOR R0,@#177716
    3497 040444 012600                  	MOV (SP)+,R0
    3498 040446 012737  000000  177712  TON:	MOV #0,@#177712
    3499 040454 000002                  	RTI
    3500                                
    3501 040456 005767  035646'         MSSPR:	TST NOMSE
    3502 040462 001105                  	BNE 1$
    3503 040464 010046                  	MOV R0,-(SP)
    3504 040466 013700  177400          	MOV @#177400,R0
    3505 040472 013746  177010          	MOV @#177010,-(SP)
    3506 040476 012737  016465  177010  	MOV #MSST/2,@#177010
    3507 040504 005767  035646'         	TST NOMSE
    3508 040510 001403                  	BEQ 6$
    3509 040512 005067  035646'         	CLR NOMSE
    3510 040516 005000                  	CLR R0
    3511 040520 020027  100601          6$:	CMP R0,#100601
    3512 040524 001001                  	BNE 7$
    3513 040526 005000                  	CLR R0
    3514 040530 010037  177014          7$:	MOV R0,@#177014
    3515 040534 030027  000001          	BIT R0,#1.
    3516 040540 001412                  	BEQ 2$
    3517 040542 036727  040700' 000001  	BIT PMSST,#1.
    3518 040550 001017                  	BNE 4$
    3519 040552 012737  016447  177010  	MOV #KeyShift/2,@#177010
    3520 040560 005237  177014          	INC @#177014
    3521 040564 000411                  	BR 4$
    3522 040566 036727  040700' 000001  2$:	BIT PMSST,#1.
    3523 040574 001405                  	BEQ 4$
    3524 040576 012737  016447  177010  	MOV #KeyShift/2,@#177010
    3525 040604 005037  177014          	CLR @#177014
    3526 040610 030027  000400          4$:	BIT R0,#256.
    3527 040614 001412                  	BEQ 3$
    3528 040616 036727  040700' 000400  	BIT PMSST,#256.
    3529 040624 001017                  	BNE 5$
    3530 040626 012737  016451  177010  	MOV #KeySpace/2,@#177010
    3531 040634 005237  177014          	INC @#177014
    3532 040640 000411                  	BR 5$
    3533 040642 036727  040700' 000400  3$:	BIT PMSST,#256.
    3534 040650 001405                  	BEQ 5$
    3535 040652 012737  016451  177010  	MOV #KeySpace/2,@#177010
    3536 040660 005037  177014          	CLR @#177014
    3537 040664 010067  040700'         5$:	MOV R0,PMSST
    3538 040670 012637  177010          	MOV (SP)+,@#177010
    3539 040674 012600                  	MOV (SP)+,R0
    3540                                1$:	RET
       1 040676 000207                  	RETURN
    3541                                
    3542 040700 000000                  PMSST:	.WORD 0
    3543                                
    3544 040702 005037  177710          TINIT:	CLR @#177710
    3545 040706 005737  177714          	TST @#177714
    3546 040712 005737  177714          	TST @#177714
    3547 040716 005737  177710          	TST @#177710
    3548 040722 001367                  	BNE TINIT
    3549 040724 000207                  	RETURN
    3550                                
    3551 040726 010046                  KINT:	MOV R0,-(SP)
    3552 040730 013700  177702          	MOV @#177702,R0
    3553 040734 010146                  	MOV R1,-(SP)
    3554 040736 010246                  	MOV R2,-(SP)
    3555 040740 010346                  	MOV R3,-(SP)
    3556 040742 010446                  	MOV R4,-(SP)
    3557 040744 010546                  	MOV R5,-(SP)
    3558 040746 012704  177010          	MOV #177010,R4
    3559 040752 012705  177014          	MOV #177014,R5
    3560 040756 011446                  	MOV (R4),-(SP)
    3561 040760 012714  016457          	MOV #KeyCurrent/2,(R4)
    3562 040764 010015                  	MOV R0,(R5)
    3563 040766 032700  000200          	BIT #^B10000000,R0
    3564 040772 001023                  	BNE 50$
    3565 040774 012714  016456          	MOV #KeyAny/2,(R4)	; 'anykey' is also pressed
    3566 041000 005215                  	INC (R5)
    3567 041002 010701                  	MOV PC,R1
    3568 041004 062701  000362          	ADD #KDN-.,R1
    3569 041010 005711                  10$:	TST (R1)
    3570 041012 001555                  	BEQ 90$
    3571 041014 020021                  	CMP R0,(R1)+
    3572 041016 001403                  	BEQ 20$
    3573 041020 062701  000004          	ADD #4,R1
    3574 041024 000771                  	BR 10$
    3575                                20$:
    3576 041026 012114                  	MOV (R1)+,(R4)
    3577 041030 005215                  	INC (R5)
    3578 041032 012114                  	MOV (R1)+,(R4)
    3579 041034 001544                  	BEQ 90$
    3580 041036 005015                  	CLR (R5)
    3581 041040 000542                  	BR 90$
    3582                                50$:
    3583 041042 042700  177760          	BIC #^B1111111111110000,R0
    3584 041046 006300                  	ASL R0
    3585 041050 060007                  	ADD R0,PC
    3586 041052 000535                  	BR 90$
    3587 041054 000534                  	BR 90$
    3588 041056 000533                  	BR 90$
    3589 041060 000532                  	BR 90$
    3590 041062 000413                  	BR 104$
    3591 041064 000415                  	BR 105$
    3592 041066 000527                  	BR 90$
    3593 041070 000416                  	BR 107$
    3594 041072 000423                  	BR 108$
    3595 041074 000436                  	BR 109$
    3596 041076 000446                  	BR 110$
    3597 041100 000456                  	BR 111$
    3598 041102 000466                  	BR 112$
    3599 041104 000501                  	BR 113$
    3600 041106 000506                  	BR 114$
    3601 041110 000513                  	BR 115$
    3602 041112 012714  016445          104$:	MOV #KeyStop/2,(R4)
    3603 041116 000512                  	BR 91$
    3604 041120 012714  016447          105$:   MOV #KeyShift/2,(R4)
    3605 041124 000507                  	BR 91$
    3606 041126 012714  016423          107$:	MOV #KeyJ/2,(R4)
    3607 041132 005015                  	CLR (R5)
    3608 041134 012714  016425          	MOV #KeyF/2,(R4)
    3609 041140 000501                  	BR 91$
    3610 041142 012714  016424          108$:   MOV #KeyC/2,(R4)
    3611 041146 005015                  	CLR (R5)
    3612 041150 012714  016426          	MOV #KeyY/2,(R4)
    3613 041154 005015                  	CLR (R5)
    3614 041156 012714  016437          	MOV #Key1/2,(R4)
    3615 041162 005015                  	CLR (R5)
    3616 041164 012714  016444          	MOV #KeyK1/2,(R4)
    3617 041170 000465                  	BR 91$
    3618 041172 012714  016427          109$:   MOV #KeyW/2,(R4)
    3619 041176 005015                  	CLR (R5)
    3620 041200 012714  016436          	MOV #Key2/2,(R4)
    3621 041204 005015                  	CLR (R5)
    3622 041206 012714  016443          	MOV #KeyK2/2,(R4)
    3623 041212 000454                  	BR 91$
    3624 041214 012714  016435          110$:   MOV #Key3/2,(R4)
    3625 041220 005015                  	CLR (R5)
    3626 041222 012714  016446          	MOV #KeyUst/2,(R4)
    3627 041226 005015                  	CLR (R5)
    3628 041230 012714  016442          	MOV #KeyK3/2,(R4)
    3629 041234 000443                  	BR 91$
    3630 041236 012714  016434          111$:   MOV #Key4/2,(R4)
    3631 041242 005015                  	CLR (R5)
    3632 041244 012714  016451          	MOV #KeySpace/2,(R4)
    3633 041250 005015                  	CLR (R5)
    3634 041252 012714  016452          	MOV #KeyRight/2,(R4)
    3635 041256 000432                  	BR 91$
    3636 041260 012714  016433          112$:   MOV #Key5/2,(R4)
    3637 041264 005015                  	CLR (R5)
    3638 041266 012714  016454          	MOV #KeyDown/2,(R4)
    3639 041272 005015                  	CLR (R5)
    3640 041274 012714  016455          	MOV #KeyUp/2,(R4)
    3641 041300 005015                  	CLR (R5)
    3642 041302 012714  016441          	MOV #KeyK4/2,(R4)
    3643 041306 000416                  	BR 91$
    3644 041310 012714  016432          113$:   MOV #Key6/2,(R4)
    3645 041314 005015                  	CLR (R5)
    3646 041316 012714  016440          	MOV #KeyK5/2,(R4)
    3647 041322 000410                  	BR 91$
    3648 041324 012714  016431          114$:   MOV #Key7/2,(R4)
    3649 041330 005015                  	CLR (R5)
    3650 041332 012714  016453          	MOV #KeyLeft/2,(R4)
    3651 041336 000402                  	BR 91$
    3652 041340 012714  016430          115$:   MOV #Key8/2,(R4)
    3653 041344 005015                  91$:	CLR (R5)
    3654 041346 012614                  90$:	MOV (SP)+,(R4)
    3655 041350 012605                  	MOV (SP)+,R5
    3656 041352 012604                  	MOV (SP)+,R4
    3657 041354 012603                  	MOV (SP)+,R3
    3658 041356 012602                  	MOV (SP)+,R2
    3659 041360 012601                  	MOV (SP)+,R1
    3660 041362 012600                  	MOV (SP)+,R0
    3661 041364 000002                  	RTI
    3662 041366 000004  016445  000000  KDN:	.WORD ^B00000100,KeyStop/2,0
    3663 041374 000152  016446  000000  	.WORD ^B01101010,KeyUst/2,0
    3664 041402 000153  016450  000000  	.WORD ^B01101011,KeyEnter/2,0
    3665 041410 000030  016437  000000  	.WORD ^B00011000,Key1/2,0
    3666 041416 000031  016436  000000  	.WORD ^B00011001,Key2/2,0
    3667 041424 000032  016435  000000  	.WORD ^B00011010,Key3/2,0
    3668 041432 000013  016434  000000  	.WORD ^B00001011,Key4/2,0
    3669 041440 000034  016433  000000  	.WORD ^B00011100,Key5/2,0
    3670 041446 000035  016432  000000  	.WORD ^B00011101,Key6/2,0
    3671 041454 000016  016431  000000  	.WORD ^B00001110,Key7/2,0
    3672 041462 000017  016430  000000  	.WORD ^B00001111,Key8/2,0
    3673 041470 000113  016451  000000  	.WORD ^B01001011,KeySpace/2,0
    3674 041476 000134  016454  016455  	.WORD ^B01011100,KeyDown/2,KeyUp/2
    3675 041504 000154  016455  016454  	.WORD ^B01101100,KeyUp/2,KeyDown/2
    3676 041512 000116  016453  016452  	.WORD ^B01001110,KeyLeft/2,KeyRight/2
    3677 041520 000133  016452  016453  	.WORD ^B01011011,KeyRight/2,KeyLeft/2
    3678 041526 000010  016444  000000  	.WORD ^B00001000,KeyK1/2,0
    3679 041534 000011  016443  000000  	.WORD ^B00001001,KeyK2/2,0
    3680 041542 000012  016442  000000  	.WORD ^B00001010,KeyK3/2,0
    3681 041550 000014  016441  000000  	.WORD ^B00001100,KeyK4/2,0
    3682 041556 000015  016440  000000  	.WORD ^B00001101,KeyK5/2,0
    3683 041564 000105  016447  000000  	.WORD ^B01000101,KeyShift/2,0
    3684 041572 000027  016423  016442  	.WORD ^B00010111,KeyJ/2,KeyK3/2
    3685 041600 000050  016424  016454  	.WORD ^B00101000,KeyC/2,KeyDown/2
    3686 041606 000047  016425  016427  	.WORD ^B00100111,KeyF/2,KeyW/2
    3687 041614 000070  016426  016455  	.WORD ^B00111000,KeyY/2,KeyUp/2
    3688 041622 000071  016427  016425  	.WORD ^B00111001,KeyW/2,KeyF/2
    3689 041630 000000                  	.WORD 0
    3690                                
    3691 041632 000000                  XCHMSK:	.WORD 0
    3692 041634 000000                  XCHUND:	.WORD 0
    3693 041636 013746  177010          XTXCH:	MOV @#177010,-(SP)
    3694 041642 012737  016460  177010  	MOV #PPUV1/2,@#177010
    3695 041650 013700  177014          	MOV @#177014,R0
    3696 041654 012737  016461  177010  	MOV #PPUV2/2,@#177010
    3697 041662 013702  177014          	MOV @#177014,R2
    3698 041666 012737  016462  177010  	MOV #PPUV3/2,@#177010
    3699 041674 013767  177014  041632' 	MOV @#177014,XCHMSK
    3700 041702 012737  016463  177010  	MOV #PPUV4/2,@#177010
    3701 041710 013767  177014  041634' 	MOV @#177014,XCHUND
    3702 041716 010246                  	MOV R2,-(SP)
    3703 041720 006302                  	ASL R2
    3704 041722 010246                  	MOV R2,-(SP)
    3705 041724 006302                  	ASL R2
    3706 041726 006302                  	ASL R2
    3707 041730 062602                  	ADD (SP)+,R2
    3708 041732 062602                  	ADD (SP)+,R2
    3709 041734 062702  117430          	ADD #FNT,R2
    3710 041740 012701  000013          	MOV #11.,R1
    3711 041744 112203                  1$:	MOVB (R2)+,R3
    3712 041746 005004                  	CLR R4
    3713 041750 005005                  	CLR R5
    3714 041752 106003                  	RORB R3
    3715 041754 103002                  	BCC 2$
    3716 041756 052704  001403          	BIS #^B0000001100000011,R4
    3717 041762 106003                  2$:	RORB R3
    3718 041764 103002                  	BCC 3$
    3719 041766 052704  006014          	BIS #^B0000110000001100,R4
    3720 041772 106003                  3$:	RORB R3
    3721 041774 103002                  	BCC 4$
    3722 041776 052704  030060          	BIS #^B0011000000110000,R4
    3723 042002 106003                  4$:	RORB R3
    3724 042004 103002                  	BCC 5$
    3725 042006 052704  140300          	BIS #^B1100000011000000,R4
    3726 042012 106003                  5$:	RORB R3
    3727 042014 103002                  	BCC 6$
    3728 042016 052705  001403          	BIS #^B0000001100000011,R5
    3729 042022 106003                  6$:	RORB R3
    3730 042024 103002                  	BCC 7$
    3731 042026 052705  006014          	BIS #^B0000110000001100,R5
    3732 042032 106003                  7$:	RORB R3
    3733 042034 103002                  	BCC 8$
    3734 042036 052705  030060          	BIS #^B0011000000110000,R5
    3735 042042 106003                  8$:	RORB R3
    3736 042044 103002                  	BCC 9$
    3737 042046 052705  140300          	BIS #^B1100000011000000,R5
    3738                                9$:
    3739 042052 046704  041632'         	BIC XCHMSK,R4
    3740 042056 046705  041632'         	BIC XCHMSK,R5
    3741 042062 010037  177010          	MOV R0,@#177010
    3742 042066 010437  177014          	MOV R4,@#177014
    3743                                
    3744 042072 005237  177010          	INC @#177010
    3745 042076 010537  177014          	MOV R5,@#177014
    3746                                
    3747 042102 062700  000120          	ADD #C_SCRWIH,R0
    3748 042106 077162                  	SOB R1,1$
    3749 042110 005337  177010          	DEC @#177010
    3750 042114 056737  041634' 177014  	BIS XCHUND,@#177014
    3751 042122 005237  177010          	INC @#177010
    3752 042126 056737  041634' 177014  	BIS XCHUND,@#177014
    3753 042134 162700  001556          	SUB #880.-2.,R0
    3754 042140 012737  016460  177010  	MOV #PPUV1/2,@#177010
    3755 042146 010037  177014          	MOV R0,@#177014
    3756 042152 012637  177010          	MOV (SP)+,@#177010
    3757                                	RET
       1 042156 000207                  	RETURN
    3758 042160 013746  177010          XTXCH2:	MOV @#177010,-(SP)
    3759 042164 012737  016460  177010  	MOV #PPUV1/2,@#177010
    3760 042172 013700  177014          	MOV @#177014,R0
    3761 042176 010046                  	MOV R0,-(SP)
    3762 042200 012737  016461  177010  	MOV #PPUV2/2,@#177010
    3763 042206 013702  177014          	MOV @#177014,R2
    3764 042212 012737  016462  177010  	MOV #PPUV3/2,@#177010
    3765 042220 013767  177014  041632' 	MOV @#177014,XCHMSK
    3766 042226 012737  016463  177010  	MOV #PPUV4/2,@#177010
    3767 042234 013767  177014  041634' 	MOV @#177014,XCHUND
    3768 042242 010246                  	MOV R2,-(SP)
    3769 042244 006302                  	ASL R2
    3770 042246 010246                  	MOV R2,-(SP)
    3771 042250 006302                  	ASL R2
    3772 042252 006302                  	ASL R2
    3773 042254 062602                  	ADD (SP)+,R2
    3774 042256 062602                  	ADD (SP)+,R2
    3775 042260 062702  117430          	ADD #FNT,R2
    3776 042264 012701  000013          	MOV #11.,R1
    3777 042270 112203                  1$:	MOVB (R2)+,R3
    3778 042272 010037  177010          	MOV R0,@#177010
    3779 042276 012705  000004          	MOV #4,R5
    3780 042302 005004                  2$:	CLR R4
    3781 042304 106003                  	RORB R3
    3782 042306 103002                  	BCC 3$
    3783 042310 052704  007417          	BIS #^B0000111100001111,R4
    3784 042314 106003                  3$:	RORB R3
    3785 042316 103002                  	BCC 4$
    3786 042320 052704  170360          	BIS #^B1111000011110000,R4
    3787                                4$:
    3788 042324 046704  041632'         	BIC XCHMSK,R4
    3789 042330 010437  177014          	MOV R4,@#177014
    3790 042334 005237  177010          	INC @#177010
    3791 042340 077520                  	SOB R5,2$
    3792 042342 062700  000120          	ADD #C_SCRWIH,R0
    3793 042346 062700  000120          	ADD #C_SCRWIH,R0
    3794 042352 062700  000120          	ADD #C_SCRWIH,R0
    3795 042356 062700  000120          	ADD #C_SCRWIH,R0
    3796 042362 077136                  	SOB R1,1$
    3797 042364 012600                  	MOV (SP)+,R0
    3798 042366 062700  000004          	ADD #4,R0
    3799 042372 012737  016460  177010  	MOV #PPUV1/2,@#177010
    3800 042400 010037  177014          	MOV R0,@#177014
    3801 042404 012637  177010          	MOV (SP)+,@#177010
    3802                                	RET
       1 042410 000207                  	RETURN
    3803 042412 013746  177010          XPRCH:	MOV @#177010,-(SP)
    3804 042416 012737  016460  177010  	MOV #PPUV1/2,@#177010
    3805 042424 013700  177014          	MOV @#177014,R0
    3806 042430 012737  016461  177010  	MOV #PPUV2/2,@#177010
    3807 042436 013701  177014          	MOV @#177014,R1
    3808 042442 010146                  	MOV R1,-(SP)
    3809 042444 010046                  	MOV R0,-(SP)
    3810 042446 006300                  	ASL R0
    3811 042450 010046                  	MOV R0,-(SP)
    3812 042452 006300                  	ASL R0
    3813 042454 006300                  	ASL R0
    3814 042456 062600                  	ADD (SP)+,R0
    3815 042460 062600                  	ADD (SP)+,R0
    3816 042462 062700  117430          	ADD #FNT,R0
    3817 042466 012746  000013          	MOV #11.,-(SP)
    3818 042472 012702  000004          1$:	MOV #4.,R2
    3819 042476 112003                  	MOVB (R0)+,R3
    3820 042500 010137  177010          2$:	MOV R1,@#177010
    3821 042504 005037  177014          	CLR @#177014
    3822 042510 062737  000120  177010  	ADD #C_SCRWIH,@#177010
    3823 042516 005037  177014          	CLR @#177014
    3824 042522 106003                  	RORB R3
    3825 042524 103013                  	BCC 3$
    3826 042526 010137  177010          	MOV R1,@#177010
    3827 042532 052737  007417  177014  	BIS #7417,@#177014
    3828 042540 062737  000120  177010  	ADD #C_SCRWIH,@#177010
    3829 042546 052737  007417  177014  	BIS #7417,@#177014
    3830 042554 106003                  3$:	RORB R3
    3831 042556 103013                  	BCC 4$
    3832 042560 010137  177010          	MOV R1,@#177010
    3833 042564 052737  170360  177014  	BIS #170360,@#177014
    3834 042572 062737  000120  177010  	ADD #C_SCRWIH,@#177010
    3835 042600 052737  170360  177014  	BIS #170360,@#177014
    3836 042606 005201                  4$:	INC R1
    3837 042610 077245                  	SOB R2,2$
    3838 042612 062701  000234          	ADD #C_SCRWIH+C_SCRWIH-4,R1
    3839 042616 005316                  	DEC (SP)
    3840 042620 001324                  	BNE 1$
    3841 042622 005726                  	TST (SP)+
    3842 042624 012601                  	MOV (SP)+,R1
    3843 042626 062701  000004          	ADD #4.,R1
    3844 042632 012737  016461  177010  	MOV #PPUV2/2,@#177010
    3845 042640 010137  177014          	MOV R1,@#177014
    3846 042644 012637  177010          	MOV (SP)+,@#177010
    3847                                	RET
       1 042650 000207                  	RETURN
    3848                                
    3849 042652                         VTABS:	.BLKB 3540.
    3850 051576 000240                  	NOP
    3851                                
    3852                                PPUEND:
    3853                                
    3854                                	.END START
    3855                                
    3855                                
